
ctarget:     file format elf64-x86-64


Disassembly of section .init:

0000000000400ce8 <_init>:
  400ce8:	48 83 ec 08          	sub    $0x8,%rsp
  400cec:	48 8b 05 05 33 20 00 	mov    0x203305(%rip),%rax        # 603ff8 <__gmon_start__>
  400cf3:	48 85 c0             	test   %rax,%rax
  400cf6:	74 02                	je     400cfa <_init+0x12>
  400cf8:	ff d0                	callq  *%rax
  400cfa:	48 83 c4 08          	add    $0x8,%rsp
  400cfe:	c3                   	retq   

Disassembly of section .plt:

0000000000400d00 <.plt>:
  400d00:	ff 35 02 33 20 00    	pushq  0x203302(%rip)        # 604008 <_GLOBAL_OFFSET_TABLE_+0x8>
  400d06:	ff 25 04 33 20 00    	jmpq   *0x203304(%rip)        # 604010 <_GLOBAL_OFFSET_TABLE_+0x10>
  400d0c:	0f 1f 40 00          	nopl   0x0(%rax)

0000000000400d10 <strcasecmp@plt>:
  400d10:	ff 25 02 33 20 00    	jmpq   *0x203302(%rip)        # 604018 <strcasecmp@GLIBC_2.2.5>
  400d16:	68 00 00 00 00       	pushq  $0x0
  400d1b:	e9 e0 ff ff ff       	jmpq   400d00 <.plt>

0000000000400d20 <__errno_location@plt>:
  400d20:	ff 25 fa 32 20 00    	jmpq   *0x2032fa(%rip)        # 604020 <__errno_location@GLIBC_2.2.5>
  400d26:	68 01 00 00 00       	pushq  $0x1
  400d2b:	e9 d0 ff ff ff       	jmpq   400d00 <.plt>

0000000000400d30 <srandom@plt>:
  400d30:	ff 25 f2 32 20 00    	jmpq   *0x2032f2(%rip)        # 604028 <srandom@GLIBC_2.2.5>
  400d36:	68 02 00 00 00       	pushq  $0x2
  400d3b:	e9 c0 ff ff ff       	jmpq   400d00 <.plt>

0000000000400d40 <strncmp@plt>:
  400d40:	ff 25 ea 32 20 00    	jmpq   *0x2032ea(%rip)        # 604030 <strncmp@GLIBC_2.2.5>
  400d46:	68 03 00 00 00       	pushq  $0x3
  400d4b:	e9 b0 ff ff ff       	jmpq   400d00 <.plt>

0000000000400d50 <strcpy@plt>:
  400d50:	ff 25 e2 32 20 00    	jmpq   *0x2032e2(%rip)        # 604038 <strcpy@GLIBC_2.2.5>
  400d56:	68 04 00 00 00       	pushq  $0x4
  400d5b:	e9 a0 ff ff ff       	jmpq   400d00 <.plt>

0000000000400d60 <puts@plt>:
  400d60:	ff 25 da 32 20 00    	jmpq   *0x2032da(%rip)        # 604040 <puts@GLIBC_2.2.5>
  400d66:	68 05 00 00 00       	pushq  $0x5
  400d6b:	e9 90 ff ff ff       	jmpq   400d00 <.plt>

0000000000400d70 <write@plt>:
  400d70:	ff 25 d2 32 20 00    	jmpq   *0x2032d2(%rip)        # 604048 <write@GLIBC_2.2.5>
  400d76:	68 06 00 00 00       	pushq  $0x6
  400d7b:	e9 80 ff ff ff       	jmpq   400d00 <.plt>

0000000000400d80 <mmap@plt>:
  400d80:	ff 25 ca 32 20 00    	jmpq   *0x2032ca(%rip)        # 604050 <mmap@GLIBC_2.2.5>
  400d86:	68 07 00 00 00       	pushq  $0x7
  400d8b:	e9 70 ff ff ff       	jmpq   400d00 <.plt>

0000000000400d90 <printf@plt>:
  400d90:	ff 25 c2 32 20 00    	jmpq   *0x2032c2(%rip)        # 604058 <printf@GLIBC_2.2.5>
  400d96:	68 08 00 00 00       	pushq  $0x8
  400d9b:	e9 60 ff ff ff       	jmpq   400d00 <.plt>

0000000000400da0 <memset@plt>:
  400da0:	ff 25 ba 32 20 00    	jmpq   *0x2032ba(%rip)        # 604060 <memset@GLIBC_2.2.5>
  400da6:	68 09 00 00 00       	pushq  $0x9
  400dab:	e9 50 ff ff ff       	jmpq   400d00 <.plt>

0000000000400db0 <alarm@plt>:
  400db0:	ff 25 b2 32 20 00    	jmpq   *0x2032b2(%rip)        # 604068 <alarm@GLIBC_2.2.5>
  400db6:	68 0a 00 00 00       	pushq  $0xa
  400dbb:	e9 40 ff ff ff       	jmpq   400d00 <.plt>

0000000000400dc0 <close@plt>:
  400dc0:	ff 25 aa 32 20 00    	jmpq   *0x2032aa(%rip)        # 604070 <close@GLIBC_2.2.5>
  400dc6:	68 0b 00 00 00       	pushq  $0xb
  400dcb:	e9 30 ff ff ff       	jmpq   400d00 <.plt>

0000000000400dd0 <read@plt>:
  400dd0:	ff 25 a2 32 20 00    	jmpq   *0x2032a2(%rip)        # 604078 <read@GLIBC_2.2.5>
  400dd6:	68 0c 00 00 00       	pushq  $0xc
  400ddb:	e9 20 ff ff ff       	jmpq   400d00 <.plt>

0000000000400de0 <signal@plt>:
  400de0:	ff 25 9a 32 20 00    	jmpq   *0x20329a(%rip)        # 604080 <signal@GLIBC_2.2.5>
  400de6:	68 0d 00 00 00       	pushq  $0xd
  400deb:	e9 10 ff ff ff       	jmpq   400d00 <.plt>

0000000000400df0 <gethostbyname@plt>:
  400df0:	ff 25 92 32 20 00    	jmpq   *0x203292(%rip)        # 604088 <gethostbyname@GLIBC_2.2.5>
  400df6:	68 0e 00 00 00       	pushq  $0xe
  400dfb:	e9 00 ff ff ff       	jmpq   400d00 <.plt>

0000000000400e00 <fprintf@plt>:
  400e00:	ff 25 8a 32 20 00    	jmpq   *0x20328a(%rip)        # 604090 <fprintf@GLIBC_2.2.5>
  400e06:	68 0f 00 00 00       	pushq  $0xf
  400e0b:	e9 f0 fe ff ff       	jmpq   400d00 <.plt>

0000000000400e10 <strtol@plt>:
  400e10:	ff 25 82 32 20 00    	jmpq   *0x203282(%rip)        # 604098 <strtol@GLIBC_2.2.5>
  400e16:	68 10 00 00 00       	pushq  $0x10
  400e1b:	e9 e0 fe ff ff       	jmpq   400d00 <.plt>

0000000000400e20 <memcpy@plt>:
  400e20:	ff 25 7a 32 20 00    	jmpq   *0x20327a(%rip)        # 6040a0 <memcpy@GLIBC_2.14>
  400e26:	68 11 00 00 00       	pushq  $0x11
  400e2b:	e9 d0 fe ff ff       	jmpq   400d00 <.plt>

0000000000400e30 <time@plt>:
  400e30:	ff 25 72 32 20 00    	jmpq   *0x203272(%rip)        # 6040a8 <time@GLIBC_2.2.5>
  400e36:	68 12 00 00 00       	pushq  $0x12
  400e3b:	e9 c0 fe ff ff       	jmpq   400d00 <.plt>

0000000000400e40 <random@plt>:
  400e40:	ff 25 6a 32 20 00    	jmpq   *0x20326a(%rip)        # 6040b0 <random@GLIBC_2.2.5>
  400e46:	68 13 00 00 00       	pushq  $0x13
  400e4b:	e9 b0 fe ff ff       	jmpq   400d00 <.plt>

0000000000400e50 <_IO_getc@plt>:
  400e50:	ff 25 62 32 20 00    	jmpq   *0x203262(%rip)        # 6040b8 <_IO_getc@GLIBC_2.2.5>
  400e56:	68 14 00 00 00       	pushq  $0x14
  400e5b:	e9 a0 fe ff ff       	jmpq   400d00 <.plt>

0000000000400e60 <__isoc99_sscanf@plt>:
  400e60:	ff 25 5a 32 20 00    	jmpq   *0x20325a(%rip)        # 6040c0 <__isoc99_sscanf@GLIBC_2.7>
  400e66:	68 15 00 00 00       	pushq  $0x15
  400e6b:	e9 90 fe ff ff       	jmpq   400d00 <.plt>

0000000000400e70 <munmap@plt>:
  400e70:	ff 25 52 32 20 00    	jmpq   *0x203252(%rip)        # 6040c8 <munmap@GLIBC_2.2.5>
  400e76:	68 16 00 00 00       	pushq  $0x16
  400e7b:	e9 80 fe ff ff       	jmpq   400d00 <.plt>

0000000000400e80 <bcopy@plt>:
  400e80:	ff 25 4a 32 20 00    	jmpq   *0x20324a(%rip)        # 6040d0 <bcopy@GLIBC_2.2.5>
  400e86:	68 17 00 00 00       	pushq  $0x17
  400e8b:	e9 70 fe ff ff       	jmpq   400d00 <.plt>

0000000000400e90 <fopen@plt>:
  400e90:	ff 25 42 32 20 00    	jmpq   *0x203242(%rip)        # 6040d8 <fopen@GLIBC_2.2.5>
  400e96:	68 18 00 00 00       	pushq  $0x18
  400e9b:	e9 60 fe ff ff       	jmpq   400d00 <.plt>

0000000000400ea0 <getopt@plt>:
  400ea0:	ff 25 3a 32 20 00    	jmpq   *0x20323a(%rip)        # 6040e0 <getopt@GLIBC_2.2.5>
  400ea6:	68 19 00 00 00       	pushq  $0x19
  400eab:	e9 50 fe ff ff       	jmpq   400d00 <.plt>

0000000000400eb0 <strtoul@plt>:
  400eb0:	ff 25 32 32 20 00    	jmpq   *0x203232(%rip)        # 6040e8 <strtoul@GLIBC_2.2.5>
  400eb6:	68 1a 00 00 00       	pushq  $0x1a
  400ebb:	e9 40 fe ff ff       	jmpq   400d00 <.plt>

0000000000400ec0 <gethostname@plt>:
  400ec0:	ff 25 2a 32 20 00    	jmpq   *0x20322a(%rip)        # 6040f0 <gethostname@GLIBC_2.2.5>
  400ec6:	68 1b 00 00 00       	pushq  $0x1b
  400ecb:	e9 30 fe ff ff       	jmpq   400d00 <.plt>

0000000000400ed0 <sprintf@plt>:
  400ed0:	ff 25 22 32 20 00    	jmpq   *0x203222(%rip)        # 6040f8 <sprintf@GLIBC_2.2.5>
  400ed6:	68 1c 00 00 00       	pushq  $0x1c
  400edb:	e9 20 fe ff ff       	jmpq   400d00 <.plt>

0000000000400ee0 <exit@plt>:
  400ee0:	ff 25 1a 32 20 00    	jmpq   *0x20321a(%rip)        # 604100 <exit@GLIBC_2.2.5>
  400ee6:	68 1d 00 00 00       	pushq  $0x1d
  400eeb:	e9 10 fe ff ff       	jmpq   400d00 <.plt>

0000000000400ef0 <connect@plt>:
  400ef0:	ff 25 12 32 20 00    	jmpq   *0x203212(%rip)        # 604108 <connect@GLIBC_2.2.5>
  400ef6:	68 1e 00 00 00       	pushq  $0x1e
  400efb:	e9 00 fe ff ff       	jmpq   400d00 <.plt>

0000000000400f00 <socket@plt>:
  400f00:	ff 25 0a 32 20 00    	jmpq   *0x20320a(%rip)        # 604110 <socket@GLIBC_2.2.5>
  400f06:	68 1f 00 00 00       	pushq  $0x1f
  400f0b:	e9 f0 fd ff ff       	jmpq   400d00 <.plt>

Disassembly of section .text:

0000000000400f10 <_start>:
  400f10:	31 ed                	xor    %ebp,%ebp
  400f12:	49 89 d1             	mov    %rdx,%r9
  400f15:	5e                   	pop    %rsi
  400f16:	48 89 e2             	mov    %rsp,%rdx
  400f19:	48 83 e4 f0          	and    $0xfffffffffffffff0,%rsp
  400f1d:	50                   	push   %rax
  400f1e:	54                   	push   %rsp
  400f1f:	49 c7 c0 e0 2c 40 00 	mov    $0x402ce0,%r8
  400f26:	48 c7 c1 70 2c 40 00 	mov    $0x402c70,%rcx
  400f2d:	48 c7 c7 b0 11 40 00 	mov    $0x4011b0,%rdi
  400f34:	ff 15 b6 30 20 00    	callq  *0x2030b6(%rip)        # 603ff0 <__libc_start_main@GLIBC_2.2.5>
  400f3a:	f4                   	hlt    
  400f3b:	0f 1f 44 00 00       	nopl   0x0(%rax,%rax,1)

0000000000400f40 <deregister_tm_clones>:
  400f40:	55                   	push   %rbp
  400f41:	b8 90 44 60 00       	mov    $0x604490,%eax
  400f46:	48 3d 90 44 60 00    	cmp    $0x604490,%rax
  400f4c:	48 89 e5             	mov    %rsp,%rbp
  400f4f:	74 17                	je     400f68 <deregister_tm_clones+0x28>
  400f51:	b8 00 00 00 00       	mov    $0x0,%eax
  400f56:	48 85 c0             	test   %rax,%rax
  400f59:	74 0d                	je     400f68 <deregister_tm_clones+0x28>
  400f5b:	5d                   	pop    %rbp
  400f5c:	bf 90 44 60 00       	mov    $0x604490,%edi
  400f61:	ff e0                	jmpq   *%rax
  400f63:	0f 1f 44 00 00       	nopl   0x0(%rax,%rax,1)
  400f68:	5d                   	pop    %rbp
  400f69:	c3                   	retq   
  400f6a:	66 0f 1f 44 00 00    	nopw   0x0(%rax,%rax,1)

0000000000400f70 <register_tm_clones>:
  400f70:	be 90 44 60 00       	mov    $0x604490,%esi
  400f75:	55                   	push   %rbp
  400f76:	48 81 ee 90 44 60 00 	sub    $0x604490,%rsi
  400f7d:	48 89 e5             	mov    %rsp,%rbp
  400f80:	48 c1 fe 03          	sar    $0x3,%rsi
  400f84:	48 89 f0             	mov    %rsi,%rax
  400f87:	48 c1 e8 3f          	shr    $0x3f,%rax
  400f8b:	48 01 c6             	add    %rax,%rsi
  400f8e:	48 d1 fe             	sar    %rsi
  400f91:	74 15                	je     400fa8 <register_tm_clones+0x38>
  400f93:	b8 00 00 00 00       	mov    $0x0,%eax
  400f98:	48 85 c0             	test   %rax,%rax
  400f9b:	74 0b                	je     400fa8 <register_tm_clones+0x38>
  400f9d:	5d                   	pop    %rbp
  400f9e:	bf 90 44 60 00       	mov    $0x604490,%edi
  400fa3:	ff e0                	jmpq   *%rax
  400fa5:	0f 1f 00             	nopl   (%rax)
  400fa8:	5d                   	pop    %rbp
  400fa9:	c3                   	retq   
  400faa:	66 0f 1f 44 00 00    	nopw   0x0(%rax,%rax,1)

0000000000400fb0 <__do_global_dtors_aux>:
  400fb0:	80 3d 11 35 20 00 00 	cmpb   $0x0,0x203511(%rip)        # 6044c8 <completed.6990>
  400fb7:	75 17                	jne    400fd0 <__do_global_dtors_aux+0x20>
  400fb9:	55                   	push   %rbp
  400fba:	48 89 e5             	mov    %rsp,%rbp
  400fbd:	e8 7e ff ff ff       	callq  400f40 <deregister_tm_clones>
  400fc2:	c6 05 ff 34 20 00 01 	movb   $0x1,0x2034ff(%rip)        # 6044c8 <completed.6990>
  400fc9:	5d                   	pop    %rbp
  400fca:	c3                   	retq   
  400fcb:	0f 1f 44 00 00       	nopl   0x0(%rax,%rax,1)
  400fd0:	f3 c3                	repz retq 
  400fd2:	66 66 2e 0f 1f 84 00 	data16 nopw %cs:0x0(%rax,%rax,1)
  400fd9:	00 00 00 00 
  400fdd:	0f 1f 00             	nopl   (%rax)

0000000000400fe0 <frame_dummy>:
  400fe0:	55                   	push   %rbp
  400fe1:	48 89 e5             	mov    %rsp,%rbp
  400fe4:	5d                   	pop    %rbp
  400fe5:	eb 89                	jmp    400f70 <register_tm_clones>

0000000000400fe7 <usage>:
  400fe7:	48 83 ec 08          	sub    $0x8,%rsp
  400feb:	48 89 fe             	mov    %rdi,%rsi
  400fee:	83 3d 13 35 20 00 00 	cmpl   $0x0,0x203513(%rip)        # 604508 <is_checker>
  400ff5:	74 41                	je     401038 <usage+0x51>
  400ff7:	bf f8 2c 40 00       	mov    $0x402cf8,%edi
  400ffc:	b8 00 00 00 00       	mov    $0x0,%eax
  401001:	e8 8a fd ff ff       	callq  400d90 <printf@plt>
  401006:	bf 30 2d 40 00       	mov    $0x402d30,%edi
  40100b:	e8 50 fd ff ff       	callq  400d60 <puts@plt>
  401010:	bf a8 2e 40 00       	mov    $0x402ea8,%edi
  401015:	e8 46 fd ff ff       	callq  400d60 <puts@plt>
  40101a:	bf 58 2d 40 00       	mov    $0x402d58,%edi
  40101f:	e8 3c fd ff ff       	callq  400d60 <puts@plt>
  401024:	bf c2 2e 40 00       	mov    $0x402ec2,%edi
  401029:	e8 32 fd ff ff       	callq  400d60 <puts@plt>
  40102e:	bf 00 00 00 00       	mov    $0x0,%edi
  401033:	e8 a8 fe ff ff       	callq  400ee0 <exit@plt>
  401038:	bf de 2e 40 00       	mov    $0x402ede,%edi
  40103d:	b8 00 00 00 00       	mov    $0x0,%eax
  401042:	e8 49 fd ff ff       	callq  400d90 <printf@plt>
  401047:	bf 80 2d 40 00       	mov    $0x402d80,%edi
  40104c:	e8 0f fd ff ff       	callq  400d60 <puts@plt>
  401051:	bf a8 2d 40 00       	mov    $0x402da8,%edi
  401056:	e8 05 fd ff ff       	callq  400d60 <puts@plt>
  40105b:	bf fc 2e 40 00       	mov    $0x402efc,%edi
  401060:	e8 fb fc ff ff       	callq  400d60 <puts@plt>
  401065:	eb c7                	jmp    40102e <usage+0x47>

0000000000401067 <initialize_target>:
  401067:	55                   	push   %rbp
  401068:	53                   	push   %rbx
  401069:	48 81 ec 08 21 00 00 	sub    $0x2108,%rsp
  401070:	89 f5                	mov    %esi,%ebp
  401072:	89 3d 80 34 20 00    	mov    %edi,0x203480(%rip)        # 6044f8 <check_level>
  401078:	8b 3d ca 30 20 00    	mov    0x2030ca(%rip),%edi        # 604148 <target_id>
  40107e:	e8 ca 1b 00 00       	callq  402c4d <gencookie>
  401083:	89 05 7b 34 20 00    	mov    %eax,0x20347b(%rip)        # 604504 <cookie>
  401089:	89 c7                	mov    %eax,%edi
  40108b:	e8 bd 1b 00 00       	callq  402c4d <gencookie>
  401090:	89 05 6a 34 20 00    	mov    %eax,0x20346a(%rip)        # 604500 <authkey>
  401096:	8b 05 ac 30 20 00    	mov    0x2030ac(%rip),%eax        # 604148 <target_id>
  40109c:	8d 78 01             	lea    0x1(%rax),%edi
  40109f:	e8 8c fc ff ff       	callq  400d30 <srandom@plt>
  4010a4:	e8 97 fd ff ff       	callq  400e40 <random@plt>
  4010a9:	89 c7                	mov    %eax,%edi
  4010ab:	e8 b8 02 00 00       	callq  401368 <scramble>
  4010b0:	89 c3                	mov    %eax,%ebx
  4010b2:	85 ed                	test   %ebp,%ebp
  4010b4:	75 3d                	jne    4010f3 <initialize_target+0x8c>
  4010b6:	b8 00 00 00 00       	mov    $0x0,%eax
  4010bb:	01 d8                	add    %ebx,%eax
  4010bd:	0f b7 c0             	movzwl %ax,%eax
  4010c0:	8d 04 c5 00 01 00 00 	lea    0x100(,%rax,8),%eax
  4010c7:	89 c0                	mov    %eax,%eax
  4010c9:	48 89 05 b0 33 20 00 	mov    %rax,0x2033b0(%rip)        # 604480 <buf_offset>
  4010d0:	c6 05 51 40 20 00 63 	movb   $0x63,0x204051(%rip)        # 605128 <target_prefix>
  4010d7:	83 3d aa 33 20 00 00 	cmpl   $0x0,0x2033aa(%rip)        # 604488 <notify>
  4010de:	74 09                	je     4010e9 <initialize_target+0x82>
  4010e0:	83 3d 21 34 20 00 00 	cmpl   $0x0,0x203421(%rip)        # 604508 <is_checker>
  4010e7:	74 22                	je     40110b <initialize_target+0xa4>
  4010e9:	48 81 c4 08 21 00 00 	add    $0x2108,%rsp
  4010f0:	5b                   	pop    %rbx
  4010f1:	5d                   	pop    %rbp
  4010f2:	c3                   	retq   
  4010f3:	bf 00 00 00 00       	mov    $0x0,%edi
  4010f8:	e8 33 fd ff ff       	callq  400e30 <time@plt>
  4010fd:	89 c7                	mov    %eax,%edi
  4010ff:	e8 2c fc ff ff       	callq  400d30 <srandom@plt>
  401104:	e8 37 fd ff ff       	callq  400e40 <random@plt>
  401109:	eb b0                	jmp    4010bb <initialize_target+0x54>
  40110b:	be 00 01 00 00       	mov    $0x100,%esi
  401110:	48 89 e7             	mov    %rsp,%rdi
  401113:	e8 a8 fd ff ff       	callq  400ec0 <gethostname@plt>
  401118:	89 c5                	mov    %eax,%ebp
  40111a:	85 c0                	test   %eax,%eax
  40111c:	75 23                	jne    401141 <initialize_target+0xda>
  40111e:	89 c3                	mov    %eax,%ebx
  401120:	48 63 c3             	movslq %ebx,%rax
  401123:	48 8b 3c c5 60 41 60 	mov    0x604160(,%rax,8),%rdi
  40112a:	00 
  40112b:	48 85 ff             	test   %rdi,%rdi
  40112e:	74 2a                	je     40115a <initialize_target+0xf3>
  401130:	48 89 e6             	mov    %rsp,%rsi
  401133:	e8 d8 fb ff ff       	callq  400d10 <strcasecmp@plt>
  401138:	85 c0                	test   %eax,%eax
  40113a:	74 19                	je     401155 <initialize_target+0xee>
  40113c:	83 c3 01             	add    $0x1,%ebx
  40113f:	eb df                	jmp    401120 <initialize_target+0xb9>
  401141:	bf d8 2d 40 00       	mov    $0x402dd8,%edi
  401146:	e8 15 fc ff ff       	callq  400d60 <puts@plt>
  40114b:	bf 08 00 00 00       	mov    $0x8,%edi
  401150:	e8 8b fd ff ff       	callq  400ee0 <exit@plt>
  401155:	bd 01 00 00 00       	mov    $0x1,%ebp
  40115a:	85 ed                	test   %ebp,%ebp
  40115c:	74 36                	je     401194 <initialize_target+0x12d>
  40115e:	48 8d bc 24 00 01 00 	lea    0x100(%rsp),%rdi
  401165:	00 
  401166:	e8 75 18 00 00       	callq  4029e0 <init_driver>
  40116b:	85 c0                	test   %eax,%eax
  40116d:	0f 89 76 ff ff ff    	jns    4010e9 <initialize_target+0x82>
  401173:	48 8d b4 24 00 01 00 	lea    0x100(%rsp),%rsi
  40117a:	00 
  40117b:	bf 50 2e 40 00       	mov    $0x402e50,%edi
  401180:	b8 00 00 00 00       	mov    $0x0,%eax
  401185:	e8 06 fc ff ff       	callq  400d90 <printf@plt>
  40118a:	bf 08 00 00 00       	mov    $0x8,%edi
  40118f:	e8 4c fd ff ff       	callq  400ee0 <exit@plt>
  401194:	48 89 e6             	mov    %rsp,%rsi
  401197:	bf 10 2e 40 00       	mov    $0x402e10,%edi
  40119c:	b8 00 00 00 00       	mov    $0x0,%eax
  4011a1:	e8 ea fb ff ff       	callq  400d90 <printf@plt>
  4011a6:	bf 08 00 00 00       	mov    $0x8,%edi
  4011ab:	e8 30 fd ff ff       	callq  400ee0 <exit@plt>

00000000004011b0 <main>:
  4011b0:	41 56                	push   %r14
  4011b2:	41 55                	push   %r13
  4011b4:	41 54                	push   %r12
  4011b6:	55                   	push   %rbp
  4011b7:	53                   	push   %rbx
  4011b8:	41 89 fc             	mov    %edi,%r12d
  4011bb:	48 89 f3             	mov    %rsi,%rbx
  4011be:	be e8 1d 40 00       	mov    $0x401de8,%esi
  4011c3:	bf 0b 00 00 00       	mov    $0xb,%edi
  4011c8:	e8 13 fc ff ff       	callq  400de0 <signal@plt>
  4011cd:	be 9a 1d 40 00       	mov    $0x401d9a,%esi
  4011d2:	bf 07 00 00 00       	mov    $0x7,%edi
  4011d7:	e8 04 fc ff ff       	callq  400de0 <signal@plt>
  4011dc:	be 36 1e 40 00       	mov    $0x401e36,%esi
  4011e1:	bf 04 00 00 00       	mov    $0x4,%edi
  4011e6:	e8 f5 fb ff ff       	callq  400de0 <signal@plt>
  4011eb:	83 3d 16 33 20 00 00 	cmpl   $0x0,0x203316(%rip)        # 604508 <is_checker>
  4011f2:	75 24                	jne    401218 <main+0x68>
  4011f4:	bd 15 2f 40 00       	mov    $0x402f15,%ebp
  4011f9:	48 8b 05 a0 32 20 00 	mov    0x2032a0(%rip),%rax        # 6044a0 <stdin@@GLIBC_2.2.5>
  401200:	48 89 05 e9 32 20 00 	mov    %rax,0x2032e9(%rip)        # 6044f0 <infile>
  401207:	41 bd 00 00 00 00    	mov    $0x0,%r13d
  40120d:	41 be 00 00 00 00    	mov    $0x0,%r14d
  401213:	e9 80 00 00 00       	jmpq   401298 <main+0xe8>
  401218:	be 84 1e 40 00       	mov    $0x401e84,%esi
  40121d:	bf 0e 00 00 00       	mov    $0xe,%edi
  401222:	e8 b9 fb ff ff       	callq  400de0 <signal@plt>
  401227:	bf 05 00 00 00       	mov    $0x5,%edi
  40122c:	e8 7f fb ff ff       	callq  400db0 <alarm@plt>
  401231:	bd 1a 2f 40 00       	mov    $0x402f1a,%ebp
  401236:	eb c1                	jmp    4011f9 <main+0x49>
  401238:	48 8b 3b             	mov    (%rbx),%rdi
  40123b:	e8 a7 fd ff ff       	callq  400fe7 <usage>
  401240:	be bd 31 40 00       	mov    $0x4031bd,%esi
  401245:	48 8b 3d 64 32 20 00 	mov    0x203264(%rip),%rdi        # 6044b0 <optarg@@GLIBC_2.2.5>
  40124c:	e8 3f fc ff ff       	callq  400e90 <fopen@plt>
  401251:	48 89 05 98 32 20 00 	mov    %rax,0x203298(%rip)        # 6044f0 <infile>
  401258:	48 85 c0             	test   %rax,%rax
  40125b:	75 3b                	jne    401298 <main+0xe8>
  40125d:	48 8b 15 4c 32 20 00 	mov    0x20324c(%rip),%rdx        # 6044b0 <optarg@@GLIBC_2.2.5>
  401264:	be 22 2f 40 00       	mov    $0x402f22,%esi
  401269:	48 8b 3d 50 32 20 00 	mov    0x203250(%rip),%rdi        # 6044c0 <stderr@@GLIBC_2.2.5>
  401270:	e8 8b fb ff ff       	callq  400e00 <fprintf@plt>
  401275:	b8 01 00 00 00       	mov    $0x1,%eax
  40127a:	e9 c2 00 00 00       	jmpq   401341 <main+0x191>
  40127f:	ba 10 00 00 00       	mov    $0x10,%edx
  401284:	be 00 00 00 00       	mov    $0x0,%esi
  401289:	48 8b 3d 20 32 20 00 	mov    0x203220(%rip),%rdi        # 6044b0 <optarg@@GLIBC_2.2.5>
  401290:	e8 1b fc ff ff       	callq  400eb0 <strtoul@plt>
  401295:	41 89 c6             	mov    %eax,%r14d
  401298:	48 89 ea             	mov    %rbp,%rdx
  40129b:	48 89 de             	mov    %rbx,%rsi
  40129e:	44 89 e7             	mov    %r12d,%edi
  4012a1:	e8 fa fb ff ff       	callq  400ea0 <getopt@plt>
  4012a6:	3c ff                	cmp    $0xff,%al
  4012a8:	74 52                	je     4012fc <main+0x14c>
  4012aa:	0f be f0             	movsbl %al,%esi
  4012ad:	83 e8 61             	sub    $0x61,%eax
  4012b0:	3c 10                	cmp    $0x10,%al
  4012b2:	77 31                	ja     4012e5 <main+0x135>
  4012b4:	0f b6 c0             	movzbl %al,%eax
  4012b7:	ff 24 c5 60 2f 40 00 	jmpq   *0x402f60(,%rax,8)
  4012be:	ba 0a 00 00 00       	mov    $0xa,%edx
  4012c3:	be 00 00 00 00       	mov    $0x0,%esi
  4012c8:	48 8b 3d e1 31 20 00 	mov    0x2031e1(%rip),%rdi        # 6044b0 <optarg@@GLIBC_2.2.5>
  4012cf:	e8 3c fb ff ff       	callq  400e10 <strtol@plt>
  4012d4:	41 89 c5             	mov    %eax,%r13d
  4012d7:	eb bf                	jmp    401298 <main+0xe8>
  4012d9:	c7 05 a5 31 20 00 00 	movl   $0x0,0x2031a5(%rip)        # 604488 <notify>
  4012e0:	00 00 00 
  4012e3:	eb b3                	jmp    401298 <main+0xe8>
  4012e5:	bf 3f 2f 40 00       	mov    $0x402f3f,%edi
  4012ea:	b8 00 00 00 00       	mov    $0x0,%eax
  4012ef:	e8 9c fa ff ff       	callq  400d90 <printf@plt>
  4012f4:	48 8b 3b             	mov    (%rbx),%rdi
  4012f7:	e8 eb fc ff ff       	callq  400fe7 <usage>
  4012fc:	be 00 00 00 00       	mov    $0x0,%esi
  401301:	44 89 ef             	mov    %r13d,%edi
  401304:	e8 5e fd ff ff       	callq  401067 <initialize_target>
  401309:	83 3d f8 31 20 00 00 	cmpl   $0x0,0x2031f8(%rip)        # 604508 <is_checker>
  401310:	74 09                	je     40131b <main+0x16b>
  401312:	44 39 35 e7 31 20 00 	cmp    %r14d,0x2031e7(%rip)        # 604500 <authkey>
  401319:	75 2f                	jne    40134a <main+0x19a>
  40131b:	8b 35 e3 31 20 00    	mov    0x2031e3(%rip),%esi        # 604504 <cookie>
  401321:	bf 52 2f 40 00       	mov    $0x402f52,%edi
  401326:	b8 00 00 00 00       	mov    $0x0,%eax
  40132b:	e8 60 fa ff ff       	callq  400d90 <printf@plt>
  401330:	48 8b 3d 49 31 20 00 	mov    0x203149(%rip),%rdi        # 604480 <buf_offset>
  401337:	e8 19 0c 00 00       	callq  401f55 <stable_launch>
  40133c:	b8 00 00 00 00       	mov    $0x0,%eax
  401341:	5b                   	pop    %rbx
  401342:	5d                   	pop    %rbp
  401343:	41 5c                	pop    %r12
  401345:	41 5d                	pop    %r13
  401347:	41 5e                	pop    %r14
  401349:	c3                   	retq   
  40134a:	44 89 f6             	mov    %r14d,%esi
  40134d:	bf 78 2e 40 00       	mov    $0x402e78,%edi
  401352:	b8 00 00 00 00       	mov    $0x0,%eax
  401357:	e8 34 fa ff ff       	callq  400d90 <printf@plt>
  40135c:	b8 00 00 00 00       	mov    $0x0,%eax
  401361:	e8 30 07 00 00       	callq  401a96 <check_fail>
  401366:	eb b3                	jmp    40131b <main+0x16b>

0000000000401368 <scramble>:
  401368:	b8 00 00 00 00       	mov    $0x0,%eax
  40136d:	eb 11                	jmp    401380 <scramble+0x18>
  40136f:	69 d0 0a fc 00 00    	imul   $0xfc0a,%eax,%edx
  401375:	01 fa                	add    %edi,%edx
  401377:	89 c1                	mov    %eax,%ecx
  401379:	89 54 8c d0          	mov    %edx,-0x30(%rsp,%rcx,4)
  40137d:	83 c0 01             	add    $0x1,%eax
  401380:	83 f8 09             	cmp    $0x9,%eax
  401383:	76 ea                	jbe    40136f <scramble+0x7>
  401385:	8b 44 24 e0          	mov    -0x20(%rsp),%eax
  401389:	69 c0 58 aa 00 00    	imul   $0xaa58,%eax,%eax
  40138f:	89 44 24 e0          	mov    %eax,-0x20(%rsp)
  401393:	8b 44 24 dc          	mov    -0x24(%rsp),%eax
  401397:	69 c0 5a c0 00 00    	imul   $0xc05a,%eax,%eax
  40139d:	89 44 24 dc          	mov    %eax,-0x24(%rsp)
  4013a1:	8b 44 24 e0          	mov    -0x20(%rsp),%eax
  4013a5:	69 c0 3b 74 00 00    	imul   $0x743b,%eax,%eax
  4013ab:	89 44 24 e0          	mov    %eax,-0x20(%rsp)
  4013af:	8b 44 24 d8          	mov    -0x28(%rsp),%eax
  4013b3:	69 c0 3a 37 00 00    	imul   $0x373a,%eax,%eax
  4013b9:	89 44 24 d8          	mov    %eax,-0x28(%rsp)
  4013bd:	8b 44 24 dc          	mov    -0x24(%rsp),%eax
  4013c1:	69 c0 ec 8f 00 00    	imul   $0x8fec,%eax,%eax
  4013c7:	89 44 24 dc          	mov    %eax,-0x24(%rsp)
  4013cb:	8b 44 24 f0          	mov    -0x10(%rsp),%eax
  4013cf:	69 c0 f1 13 00 00    	imul   $0x13f1,%eax,%eax
  4013d5:	89 44 24 f0          	mov    %eax,-0x10(%rsp)
  4013d9:	8b 44 24 d4          	mov    -0x2c(%rsp),%eax
  4013dd:	69 c0 ad 85 00 00    	imul   $0x85ad,%eax,%eax
  4013e3:	89 44 24 d4          	mov    %eax,-0x2c(%rsp)
  4013e7:	8b 44 24 d4          	mov    -0x2c(%rsp),%eax
  4013eb:	69 c0 ed 8d 00 00    	imul   $0x8ded,%eax,%eax
  4013f1:	89 44 24 d4          	mov    %eax,-0x2c(%rsp)
  4013f5:	8b 44 24 d0          	mov    -0x30(%rsp),%eax
  4013f9:	69 c0 25 59 00 00    	imul   $0x5925,%eax,%eax
  4013ff:	89 44 24 d0          	mov    %eax,-0x30(%rsp)
  401403:	8b 44 24 d0          	mov    -0x30(%rsp),%eax
  401407:	69 c0 f9 17 00 00    	imul   $0x17f9,%eax,%eax
  40140d:	89 44 24 d0          	mov    %eax,-0x30(%rsp)
  401411:	8b 44 24 e8          	mov    -0x18(%rsp),%eax
  401415:	69 c0 7f d2 00 00    	imul   $0xd27f,%eax,%eax
  40141b:	89 44 24 e8          	mov    %eax,-0x18(%rsp)
  40141f:	8b 44 24 ec          	mov    -0x14(%rsp),%eax
  401423:	69 c0 60 ba 00 00    	imul   $0xba60,%eax,%eax
  401429:	89 44 24 ec          	mov    %eax,-0x14(%rsp)
  40142d:	8b 44 24 f4          	mov    -0xc(%rsp),%eax
  401431:	69 c0 12 f3 00 00    	imul   $0xf312,%eax,%eax
  401437:	89 44 24 f4          	mov    %eax,-0xc(%rsp)
  40143b:	8b 44 24 d8          	mov    -0x28(%rsp),%eax
  40143f:	69 c0 19 ea 00 00    	imul   $0xea19,%eax,%eax
  401445:	89 44 24 d8          	mov    %eax,-0x28(%rsp)
  401449:	8b 44 24 d0          	mov    -0x30(%rsp),%eax
  40144d:	69 c0 10 89 00 00    	imul   $0x8910,%eax,%eax
  401453:	89 44 24 d0          	mov    %eax,-0x30(%rsp)
  401457:	8b 44 24 e0          	mov    -0x20(%rsp),%eax
  40145b:	69 c0 40 c9 00 00    	imul   $0xc940,%eax,%eax
  401461:	89 44 24 e0          	mov    %eax,-0x20(%rsp)
  401465:	8b 44 24 e0          	mov    -0x20(%rsp),%eax
  401469:	69 c0 2f a4 00 00    	imul   $0xa42f,%eax,%eax
  40146f:	89 44 24 e0          	mov    %eax,-0x20(%rsp)
  401473:	8b 44 24 e8          	mov    -0x18(%rsp),%eax
  401477:	69 c0 17 27 00 00    	imul   $0x2717,%eax,%eax
  40147d:	89 44 24 e8          	mov    %eax,-0x18(%rsp)
  401481:	8b 44 24 d8          	mov    -0x28(%rsp),%eax
  401485:	69 c0 d8 da 00 00    	imul   $0xdad8,%eax,%eax
  40148b:	89 44 24 d8          	mov    %eax,-0x28(%rsp)
  40148f:	8b 44 24 d0          	mov    -0x30(%rsp),%eax
  401493:	69 c0 4a 43 00 00    	imul   $0x434a,%eax,%eax
  401499:	89 44 24 d0          	mov    %eax,-0x30(%rsp)
  40149d:	8b 44 24 e4          	mov    -0x1c(%rsp),%eax
  4014a1:	69 c0 d3 e1 00 00    	imul   $0xe1d3,%eax,%eax
  4014a7:	89 44 24 e4          	mov    %eax,-0x1c(%rsp)
  4014ab:	8b 44 24 d0          	mov    -0x30(%rsp),%eax
  4014af:	69 c0 b0 c0 00 00    	imul   $0xc0b0,%eax,%eax
  4014b5:	89 44 24 d0          	mov    %eax,-0x30(%rsp)
  4014b9:	8b 44 24 ec          	mov    -0x14(%rsp),%eax
  4014bd:	69 c0 c0 a4 00 00    	imul   $0xa4c0,%eax,%eax
  4014c3:	89 44 24 ec          	mov    %eax,-0x14(%rsp)
  4014c7:	8b 44 24 d4          	mov    -0x2c(%rsp),%eax
  4014cb:	69 c0 73 87 00 00    	imul   $0x8773,%eax,%eax
  4014d1:	89 44 24 d4          	mov    %eax,-0x2c(%rsp)
  4014d5:	8b 44 24 e0          	mov    -0x20(%rsp),%eax
  4014d9:	69 c0 67 de 00 00    	imul   $0xde67,%eax,%eax
  4014df:	89 44 24 e0          	mov    %eax,-0x20(%rsp)
  4014e3:	8b 44 24 f0          	mov    -0x10(%rsp),%eax
  4014e7:	69 c0 14 de 00 00    	imul   $0xde14,%eax,%eax
  4014ed:	89 44 24 f0          	mov    %eax,-0x10(%rsp)
  4014f1:	8b 44 24 e8          	mov    -0x18(%rsp),%eax
  4014f5:	69 c0 54 61 00 00    	imul   $0x6154,%eax,%eax
  4014fb:	89 44 24 e8          	mov    %eax,-0x18(%rsp)
  4014ff:	8b 44 24 ec          	mov    -0x14(%rsp),%eax
  401503:	69 c0 8e 73 00 00    	imul   $0x738e,%eax,%eax
  401509:	89 44 24 ec          	mov    %eax,-0x14(%rsp)
  40150d:	8b 44 24 ec          	mov    -0x14(%rsp),%eax
  401511:	69 c0 09 e5 00 00    	imul   $0xe509,%eax,%eax
  401517:	89 44 24 ec          	mov    %eax,-0x14(%rsp)
  40151b:	8b 44 24 d0          	mov    -0x30(%rsp),%eax
  40151f:	69 c0 9d 21 00 00    	imul   $0x219d,%eax,%eax
  401525:	89 44 24 d0          	mov    %eax,-0x30(%rsp)
  401529:	8b 44 24 e4          	mov    -0x1c(%rsp),%eax
  40152d:	69 c0 c4 ab 00 00    	imul   $0xabc4,%eax,%eax
  401533:	89 44 24 e4          	mov    %eax,-0x1c(%rsp)
  401537:	8b 44 24 dc          	mov    -0x24(%rsp),%eax
  40153b:	69 c0 82 a1 00 00    	imul   $0xa182,%eax,%eax
  401541:	89 44 24 dc          	mov    %eax,-0x24(%rsp)
  401545:	8b 44 24 e8          	mov    -0x18(%rsp),%eax
  401549:	69 c0 77 74 00 00    	imul   $0x7477,%eax,%eax
  40154f:	89 44 24 e8          	mov    %eax,-0x18(%rsp)
  401553:	8b 44 24 f4          	mov    -0xc(%rsp),%eax
  401557:	69 c0 5d 68 00 00    	imul   $0x685d,%eax,%eax
  40155d:	89 44 24 f4          	mov    %eax,-0xc(%rsp)
  401561:	8b 44 24 e0          	mov    -0x20(%rsp),%eax
  401565:	69 c0 ec 26 00 00    	imul   $0x26ec,%eax,%eax
  40156b:	89 44 24 e0          	mov    %eax,-0x20(%rsp)
  40156f:	8b 44 24 f4          	mov    -0xc(%rsp),%eax
  401573:	69 c0 14 ba 00 00    	imul   $0xba14,%eax,%eax
  401579:	89 44 24 f4          	mov    %eax,-0xc(%rsp)
  40157d:	8b 44 24 d0          	mov    -0x30(%rsp),%eax
  401581:	69 c0 e3 02 00 00    	imul   $0x2e3,%eax,%eax
  401587:	89 44 24 d0          	mov    %eax,-0x30(%rsp)
  40158b:	8b 44 24 e8          	mov    -0x18(%rsp),%eax
  40158f:	69 c0 3f 70 00 00    	imul   $0x703f,%eax,%eax
  401595:	89 44 24 e8          	mov    %eax,-0x18(%rsp)
  401599:	8b 44 24 d8          	mov    -0x28(%rsp),%eax
  40159d:	69 c0 62 c9 00 00    	imul   $0xc962,%eax,%eax
  4015a3:	89 44 24 d8          	mov    %eax,-0x28(%rsp)
  4015a7:	8b 44 24 ec          	mov    -0x14(%rsp),%eax
  4015ab:	69 c0 89 a5 00 00    	imul   $0xa589,%eax,%eax
  4015b1:	89 44 24 ec          	mov    %eax,-0x14(%rsp)
  4015b5:	8b 44 24 d4          	mov    -0x2c(%rsp),%eax
  4015b9:	69 c0 1e 97 00 00    	imul   $0x971e,%eax,%eax
  4015bf:	89 44 24 d4          	mov    %eax,-0x2c(%rsp)
  4015c3:	8b 44 24 f0          	mov    -0x10(%rsp),%eax
  4015c7:	69 c0 b0 58 00 00    	imul   $0x58b0,%eax,%eax
  4015cd:	89 44 24 f0          	mov    %eax,-0x10(%rsp)
  4015d1:	8b 44 24 e8          	mov    -0x18(%rsp),%eax
  4015d5:	69 c0 11 1c 00 00    	imul   $0x1c11,%eax,%eax
  4015db:	89 44 24 e8          	mov    %eax,-0x18(%rsp)
  4015df:	8b 44 24 e4          	mov    -0x1c(%rsp),%eax
  4015e3:	69 c0 d9 4c 00 00    	imul   $0x4cd9,%eax,%eax
  4015e9:	89 44 24 e4          	mov    %eax,-0x1c(%rsp)
  4015ed:	8b 44 24 e8          	mov    -0x18(%rsp),%eax
  4015f1:	69 c0 e5 29 00 00    	imul   $0x29e5,%eax,%eax
  4015f7:	89 44 24 e8          	mov    %eax,-0x18(%rsp)
  4015fb:	8b 44 24 dc          	mov    -0x24(%rsp),%eax
  4015ff:	69 c0 35 6f 00 00    	imul   $0x6f35,%eax,%eax
  401605:	89 44 24 dc          	mov    %eax,-0x24(%rsp)
  401609:	8b 44 24 e4          	mov    -0x1c(%rsp),%eax
  40160d:	69 c0 53 59 00 00    	imul   $0x5953,%eax,%eax
  401613:	89 44 24 e4          	mov    %eax,-0x1c(%rsp)
  401617:	8b 44 24 e0          	mov    -0x20(%rsp),%eax
  40161b:	69 c0 9c 25 00 00    	imul   $0x259c,%eax,%eax
  401621:	89 44 24 e0          	mov    %eax,-0x20(%rsp)
  401625:	8b 44 24 d0          	mov    -0x30(%rsp),%eax
  401629:	69 c0 51 d9 00 00    	imul   $0xd951,%eax,%eax
  40162f:	89 44 24 d0          	mov    %eax,-0x30(%rsp)
  401633:	8b 44 24 dc          	mov    -0x24(%rsp),%eax
  401637:	69 c0 1a 1d 00 00    	imul   $0x1d1a,%eax,%eax
  40163d:	89 44 24 dc          	mov    %eax,-0x24(%rsp)
  401641:	8b 44 24 e8          	mov    -0x18(%rsp),%eax
  401645:	69 c0 a2 39 00 00    	imul   $0x39a2,%eax,%eax
  40164b:	89 44 24 e8          	mov    %eax,-0x18(%rsp)
  40164f:	8b 44 24 e4          	mov    -0x1c(%rsp),%eax
  401653:	69 c0 fc 08 00 00    	imul   $0x8fc,%eax,%eax
  401659:	89 44 24 e4          	mov    %eax,-0x1c(%rsp)
  40165d:	8b 44 24 dc          	mov    -0x24(%rsp),%eax
  401661:	69 c0 f2 51 00 00    	imul   $0x51f2,%eax,%eax
  401667:	89 44 24 dc          	mov    %eax,-0x24(%rsp)
  40166b:	8b 44 24 e8          	mov    -0x18(%rsp),%eax
  40166f:	69 c0 29 e4 00 00    	imul   $0xe429,%eax,%eax
  401675:	89 44 24 e8          	mov    %eax,-0x18(%rsp)
  401679:	8b 44 24 d4          	mov    -0x2c(%rsp),%eax
  40167d:	69 c0 ed 70 00 00    	imul   $0x70ed,%eax,%eax
  401683:	89 44 24 d4          	mov    %eax,-0x2c(%rsp)
  401687:	8b 44 24 d4          	mov    -0x2c(%rsp),%eax
  40168b:	69 c0 1e c3 00 00    	imul   $0xc31e,%eax,%eax
  401691:	89 44 24 d4          	mov    %eax,-0x2c(%rsp)
  401695:	8b 44 24 e0          	mov    -0x20(%rsp),%eax
  401699:	69 c0 50 0d 00 00    	imul   $0xd50,%eax,%eax
  40169f:	89 44 24 e0          	mov    %eax,-0x20(%rsp)
  4016a3:	8b 44 24 e0          	mov    -0x20(%rsp),%eax
  4016a7:	6b c0 7e             	imul   $0x7e,%eax,%eax
  4016aa:	89 44 24 e0          	mov    %eax,-0x20(%rsp)
  4016ae:	8b 44 24 d4          	mov    -0x2c(%rsp),%eax
  4016b2:	69 c0 0c e8 00 00    	imul   $0xe80c,%eax,%eax
  4016b8:	89 44 24 d4          	mov    %eax,-0x2c(%rsp)
  4016bc:	8b 44 24 e4          	mov    -0x1c(%rsp),%eax
  4016c0:	69 c0 7d 2a 00 00    	imul   $0x2a7d,%eax,%eax
  4016c6:	89 44 24 e4          	mov    %eax,-0x1c(%rsp)
  4016ca:	8b 44 24 f0          	mov    -0x10(%rsp),%eax
  4016ce:	69 c0 ce bb 00 00    	imul   $0xbbce,%eax,%eax
  4016d4:	89 44 24 f0          	mov    %eax,-0x10(%rsp)
  4016d8:	8b 44 24 dc          	mov    -0x24(%rsp),%eax
  4016dc:	69 c0 9b e7 00 00    	imul   $0xe79b,%eax,%eax
  4016e2:	89 44 24 dc          	mov    %eax,-0x24(%rsp)
  4016e6:	8b 44 24 ec          	mov    -0x14(%rsp),%eax
  4016ea:	69 c0 69 aa 00 00    	imul   $0xaa69,%eax,%eax
  4016f0:	89 44 24 ec          	mov    %eax,-0x14(%rsp)
  4016f4:	8b 44 24 ec          	mov    -0x14(%rsp),%eax
  4016f8:	69 c0 ec e2 00 00    	imul   $0xe2ec,%eax,%eax
  4016fe:	89 44 24 ec          	mov    %eax,-0x14(%rsp)
  401702:	8b 44 24 e0          	mov    -0x20(%rsp),%eax
  401706:	69 c0 31 9b 00 00    	imul   $0x9b31,%eax,%eax
  40170c:	89 44 24 e0          	mov    %eax,-0x20(%rsp)
  401710:	8b 44 24 e4          	mov    -0x1c(%rsp),%eax
  401714:	69 c0 f8 83 00 00    	imul   $0x83f8,%eax,%eax
  40171a:	89 44 24 e4          	mov    %eax,-0x1c(%rsp)
  40171e:	8b 44 24 ec          	mov    -0x14(%rsp),%eax
  401722:	69 c0 34 d7 00 00    	imul   $0xd734,%eax,%eax
  401728:	89 44 24 ec          	mov    %eax,-0x14(%rsp)
  40172c:	8b 44 24 f0          	mov    -0x10(%rsp),%eax
  401730:	69 c0 59 11 00 00    	imul   $0x1159,%eax,%eax
  401736:	89 44 24 f0          	mov    %eax,-0x10(%rsp)
  40173a:	8b 44 24 e0          	mov    -0x20(%rsp),%eax
  40173e:	69 c0 30 06 00 00    	imul   $0x630,%eax,%eax
  401744:	89 44 24 e0          	mov    %eax,-0x20(%rsp)
  401748:	8b 44 24 e8          	mov    -0x18(%rsp),%eax
  40174c:	69 c0 7b 44 00 00    	imul   $0x447b,%eax,%eax
  401752:	89 44 24 e8          	mov    %eax,-0x18(%rsp)
  401756:	8b 44 24 dc          	mov    -0x24(%rsp),%eax
  40175a:	69 c0 35 7f 00 00    	imul   $0x7f35,%eax,%eax
  401760:	89 44 24 dc          	mov    %eax,-0x24(%rsp)
  401764:	8b 44 24 d8          	mov    -0x28(%rsp),%eax
  401768:	69 c0 29 7f 00 00    	imul   $0x7f29,%eax,%eax
  40176e:	89 44 24 d8          	mov    %eax,-0x28(%rsp)
  401772:	8b 44 24 dc          	mov    -0x24(%rsp),%eax
  401776:	69 c0 67 23 00 00    	imul   $0x2367,%eax,%eax
  40177c:	89 44 24 dc          	mov    %eax,-0x24(%rsp)
  401780:	8b 44 24 f4          	mov    -0xc(%rsp),%eax
  401784:	69 c0 e8 b5 00 00    	imul   $0xb5e8,%eax,%eax
  40178a:	89 44 24 f4          	mov    %eax,-0xc(%rsp)
  40178e:	8b 44 24 ec          	mov    -0x14(%rsp),%eax
  401792:	69 c0 ff cc 00 00    	imul   $0xccff,%eax,%eax
  401798:	89 44 24 ec          	mov    %eax,-0x14(%rsp)
  40179c:	8b 44 24 e4          	mov    -0x1c(%rsp),%eax
  4017a0:	69 c0 64 1d 00 00    	imul   $0x1d64,%eax,%eax
  4017a6:	89 44 24 e4          	mov    %eax,-0x1c(%rsp)
  4017aa:	8b 44 24 e4          	mov    -0x1c(%rsp),%eax
  4017ae:	69 c0 17 7a 00 00    	imul   $0x7a17,%eax,%eax
  4017b4:	89 44 24 e4          	mov    %eax,-0x1c(%rsp)
  4017b8:	8b 44 24 d0          	mov    -0x30(%rsp),%eax
  4017bc:	69 c0 ee 9d 00 00    	imul   $0x9dee,%eax,%eax
  4017c2:	89 44 24 d0          	mov    %eax,-0x30(%rsp)
  4017c6:	8b 44 24 f0          	mov    -0x10(%rsp),%eax
  4017ca:	69 c0 37 12 00 00    	imul   $0x1237,%eax,%eax
  4017d0:	89 44 24 f0          	mov    %eax,-0x10(%rsp)
  4017d4:	8b 44 24 e8          	mov    -0x18(%rsp),%eax
  4017d8:	69 c0 3b a8 00 00    	imul   $0xa83b,%eax,%eax
  4017de:	89 44 24 e8          	mov    %eax,-0x18(%rsp)
  4017e2:	8b 44 24 d8          	mov    -0x28(%rsp),%eax
  4017e6:	69 c0 e0 80 00 00    	imul   $0x80e0,%eax,%eax
  4017ec:	89 44 24 d8          	mov    %eax,-0x28(%rsp)
  4017f0:	8b 44 24 e0          	mov    -0x20(%rsp),%eax
  4017f4:	69 c0 3c 82 00 00    	imul   $0x823c,%eax,%eax
  4017fa:	89 44 24 e0          	mov    %eax,-0x20(%rsp)
  4017fe:	8b 44 24 e4          	mov    -0x1c(%rsp),%eax
  401802:	69 c0 29 b9 00 00    	imul   $0xb929,%eax,%eax
  401808:	89 44 24 e4          	mov    %eax,-0x1c(%rsp)
  40180c:	8b 44 24 d4          	mov    -0x2c(%rsp),%eax
  401810:	69 c0 3b 81 00 00    	imul   $0x813b,%eax,%eax
  401816:	89 44 24 d4          	mov    %eax,-0x2c(%rsp)
  40181a:	8b 44 24 d0          	mov    -0x30(%rsp),%eax
  40181e:	69 c0 17 89 00 00    	imul   $0x8917,%eax,%eax
  401824:	89 44 24 d0          	mov    %eax,-0x30(%rsp)
  401828:	8b 44 24 f4          	mov    -0xc(%rsp),%eax
  40182c:	69 c0 77 36 00 00    	imul   $0x3677,%eax,%eax
  401832:	89 44 24 f4          	mov    %eax,-0xc(%rsp)
  401836:	8b 44 24 d4          	mov    -0x2c(%rsp),%eax
  40183a:	69 c0 4f cd 00 00    	imul   $0xcd4f,%eax,%eax
  401840:	89 44 24 d4          	mov    %eax,-0x2c(%rsp)
  401844:	8b 44 24 e0          	mov    -0x20(%rsp),%eax
  401848:	69 c0 d3 94 00 00    	imul   $0x94d3,%eax,%eax
  40184e:	89 44 24 e0          	mov    %eax,-0x20(%rsp)
  401852:	8b 44 24 f4          	mov    -0xc(%rsp),%eax
  401856:	69 c0 48 35 00 00    	imul   $0x3548,%eax,%eax
  40185c:	89 44 24 f4          	mov    %eax,-0xc(%rsp)
  401860:	8b 44 24 dc          	mov    -0x24(%rsp),%eax
  401864:	69 c0 29 fc 00 00    	imul   $0xfc29,%eax,%eax
  40186a:	89 44 24 dc          	mov    %eax,-0x24(%rsp)
  40186e:	ba 00 00 00 00       	mov    $0x0,%edx
  401873:	b8 00 00 00 00       	mov    $0x0,%eax
  401878:	eb 0b                	jmp    401885 <scramble+0x51d>
  40187a:	89 d1                	mov    %edx,%ecx
  40187c:	8b 4c 8c d0          	mov    -0x30(%rsp,%rcx,4),%ecx
  401880:	01 c8                	add    %ecx,%eax
  401882:	83 c2 01             	add    $0x1,%edx
  401885:	83 fa 09             	cmp    $0x9,%edx
  401888:	76 f0                	jbe    40187a <scramble+0x512>
  40188a:	f3 c3                	repz retq 

000000000040188c <getbuf>:
  40188c:	48 83 ec 18          	sub    $0x18,%rsp
  401890:	48 89 e7             	mov    %rsp,%rdi
  401893:	e8 2d 02 00 00       	callq  401ac5 <Gets>
  401898:	b8 01 00 00 00       	mov    $0x1,%eax
  40189d:	48 83 c4 18          	add    $0x18,%rsp
  4018a1:	c3                   	retq   

00000000004018a2 <touch1>:
  4018a2:	48 83 ec 08          	sub    $0x8,%rsp
  4018a6:	c7 05 4c 2c 20 00 01 	movl   $0x1,0x202c4c(%rip)        # 6044fc <vlevel>
  4018ad:	00 00 00 
  4018b0:	bf 0f 30 40 00       	mov    $0x40300f,%edi
  4018b5:	e8 a6 f4 ff ff       	callq  400d60 <puts@plt>
  4018ba:	bf 01 00 00 00       	mov    $0x1,%edi
  4018bf:	e8 fc 03 00 00       	callq  401cc0 <validate>
  4018c4:	bf 00 00 00 00       	mov    $0x0,%edi
  4018c9:	e8 12 f6 ff ff       	callq  400ee0 <exit@plt>

00000000004018ce <touch2>:
  4018ce:	48 83 ec 08          	sub    $0x8,%rsp
  4018d2:	89 fe                	mov    %edi,%esi
  4018d4:	c7 05 1e 2c 20 00 02 	movl   $0x2,0x202c1e(%rip)        # 6044fc <vlevel>
  4018db:	00 00 00 
  4018de:	39 3d 20 2c 20 00    	cmp    %edi,0x202c20(%rip)        # 604504 <cookie>
  4018e4:	74 23                	je     401909 <touch2+0x3b>
  4018e6:	bf 60 30 40 00       	mov    $0x403060,%edi
  4018eb:	b8 00 00 00 00       	mov    $0x0,%eax
  4018f0:	e8 9b f4 ff ff       	callq  400d90 <printf@plt>
  4018f5:	bf 02 00 00 00       	mov    $0x2,%edi
  4018fa:	e8 73 04 00 00       	callq  401d72 <fail>
  4018ff:	bf 00 00 00 00       	mov    $0x0,%edi
  401904:	e8 d7 f5 ff ff       	callq  400ee0 <exit@plt>
  401909:	bf 38 30 40 00       	mov    $0x403038,%edi
  40190e:	b8 00 00 00 00       	mov    $0x0,%eax
  401913:	e8 78 f4 ff ff       	callq  400d90 <printf@plt>
  401918:	bf 02 00 00 00       	mov    $0x2,%edi
  40191d:	e8 9e 03 00 00       	callq  401cc0 <validate>
  401922:	eb db                	jmp    4018ff <touch2+0x31>

0000000000401924 <hexmatch>:
  401924:	41 54                	push   %r12
  401926:	55                   	push   %rbp
  401927:	53                   	push   %rbx
  401928:	48 83 ec 70          	sub    $0x70,%rsp
  40192c:	89 fd                	mov    %edi,%ebp
  40192e:	48 89 f3             	mov    %rsi,%rbx
  401931:	e8 0a f5 ff ff       	callq  400e40 <random@plt>
  401936:	48 89 c1             	mov    %rax,%rcx
  401939:	48 ba 0b d7 a3 70 3d 	movabs $0xa3d70a3d70a3d70b,%rdx
  401940:	0a d7 a3 
  401943:	48 f7 ea             	imul   %rdx
  401946:	48 01 ca             	add    %rcx,%rdx
  401949:	48 c1 fa 06          	sar    $0x6,%rdx
  40194d:	48 89 c8             	mov    %rcx,%rax
  401950:	48 c1 f8 3f          	sar    $0x3f,%rax
  401954:	48 29 c2             	sub    %rax,%rdx
  401957:	48 8d 04 92          	lea    (%rdx,%rdx,4),%rax
  40195b:	48 8d 14 80          	lea    (%rax,%rax,4),%rdx
  40195f:	48 8d 04 95 00 00 00 	lea    0x0(,%rdx,4),%rax
  401966:	00 
  401967:	48 29 c1             	sub    %rax,%rcx
  40196a:	4c 8d 24 0c          	lea    (%rsp,%rcx,1),%r12
  40196e:	89 ea                	mov    %ebp,%edx
  401970:	be 2c 30 40 00       	mov    $0x40302c,%esi
  401975:	4c 89 e7             	mov    %r12,%rdi
  401978:	b8 00 00 00 00       	mov    $0x0,%eax
  40197d:	e8 4e f5 ff ff       	callq  400ed0 <sprintf@plt>
  401982:	ba 09 00 00 00       	mov    $0x9,%edx
  401987:	4c 89 e6             	mov    %r12,%rsi
  40198a:	48 89 df             	mov    %rbx,%rdi
  40198d:	e8 ae f3 ff ff       	callq  400d40 <strncmp@plt>
  401992:	85 c0                	test   %eax,%eax
  401994:	0f 94 c0             	sete   %al
  401997:	0f b6 c0             	movzbl %al,%eax
  40199a:	48 83 c4 70          	add    $0x70,%rsp
  40199e:	5b                   	pop    %rbx
  40199f:	5d                   	pop    %rbp
  4019a0:	41 5c                	pop    %r12
  4019a2:	c3                   	retq   

00000000004019a3 <touch3>:
  4019a3:	53                   	push   %rbx
  4019a4:	48 89 fb             	mov    %rdi,%rbx
  4019a7:	c7 05 4b 2b 20 00 03 	movl   $0x3,0x202b4b(%rip)        # 6044fc <vlevel>
  4019ae:	00 00 00 
  4019b1:	48 89 fe             	mov    %rdi,%rsi
  4019b4:	8b 3d 4a 2b 20 00    	mov    0x202b4a(%rip),%edi        # 604504 <cookie>
  4019ba:	e8 65 ff ff ff       	callq  401924 <hexmatch>
  4019bf:	85 c0                	test   %eax,%eax
  4019c1:	74 26                	je     4019e9 <touch3+0x46>
  4019c3:	48 89 de             	mov    %rbx,%rsi
  4019c6:	bf 88 30 40 00       	mov    $0x403088,%edi
  4019cb:	b8 00 00 00 00       	mov    $0x0,%eax
  4019d0:	e8 bb f3 ff ff       	callq  400d90 <printf@plt>
  4019d5:	bf 03 00 00 00       	mov    $0x3,%edi
  4019da:	e8 e1 02 00 00       	callq  401cc0 <validate>
  4019df:	bf 00 00 00 00       	mov    $0x0,%edi
  4019e4:	e8 f7 f4 ff ff       	callq  400ee0 <exit@plt>
  4019e9:	48 89 de             	mov    %rbx,%rsi
  4019ec:	bf b0 30 40 00       	mov    $0x4030b0,%edi
  4019f1:	b8 00 00 00 00       	mov    $0x0,%eax
  4019f6:	e8 95 f3 ff ff       	callq  400d90 <printf@plt>
  4019fb:	bf 03 00 00 00       	mov    $0x3,%edi
  401a00:	e8 6d 03 00 00       	callq  401d72 <fail>
  401a05:	eb d8                	jmp    4019df <touch3+0x3c>

0000000000401a07 <test>:
  401a07:	48 83 ec 08          	sub    $0x8,%rsp
  401a0b:	b8 00 00 00 00       	mov    $0x0,%eax
  401a10:	e8 77 fe ff ff       	callq  40188c <getbuf>
  401a15:	89 c6                	mov    %eax,%esi
  401a17:	bf d8 30 40 00       	mov    $0x4030d8,%edi
  401a1c:	b8 00 00 00 00       	mov    $0x0,%eax
  401a21:	e8 6a f3 ff ff       	callq  400d90 <printf@plt>
  401a26:	48 83 c4 08          	add    $0x8,%rsp
  401a2a:	c3                   	retq   

0000000000401a2b <save_char>:
  401a2b:	8b 05 f3 36 20 00    	mov    0x2036f3(%rip),%eax        # 605124 <gets_cnt>
  401a31:	3d ff 03 00 00       	cmp    $0x3ff,%eax
  401a36:	7f 49                	jg     401a81 <save_char+0x56>
  401a38:	89 f9                	mov    %edi,%ecx
  401a3a:	c0 e9 04             	shr    $0x4,%cl
  401a3d:	8d 14 40             	lea    (%rax,%rax,2),%edx
  401a40:	83 e1 0f             	and    $0xf,%ecx
  401a43:	0f b6 b1 00 34 40 00 	movzbl 0x403400(%rcx),%esi
  401a4a:	48 63 ca             	movslq %edx,%rcx
  401a4d:	40 88 b1 20 45 60 00 	mov    %sil,0x604520(%rcx)
  401a54:	8d 4a 01             	lea    0x1(%rdx),%ecx
  401a57:	83 e7 0f             	and    $0xf,%edi
  401a5a:	0f b6 b7 00 34 40 00 	movzbl 0x403400(%rdi),%esi
  401a61:	48 63 c9             	movslq %ecx,%rcx
  401a64:	40 88 b1 20 45 60 00 	mov    %sil,0x604520(%rcx)
  401a6b:	83 c2 02             	add    $0x2,%edx
  401a6e:	48 63 d2             	movslq %edx,%rdx
  401a71:	c6 82 20 45 60 00 20 	movb   $0x20,0x604520(%rdx)
  401a78:	83 c0 01             	add    $0x1,%eax
  401a7b:	89 05 a3 36 20 00    	mov    %eax,0x2036a3(%rip)        # 605124 <gets_cnt>
  401a81:	f3 c3                	repz retq 

0000000000401a83 <save_term>:
  401a83:	8b 05 9b 36 20 00    	mov    0x20369b(%rip),%eax        # 605124 <gets_cnt>
  401a89:	8d 04 40             	lea    (%rax,%rax,2),%eax
  401a8c:	48 98                	cltq   
  401a8e:	c6 80 20 45 60 00 00 	movb   $0x0,0x604520(%rax)
  401a95:	c3                   	retq   

0000000000401a96 <check_fail>:
  401a96:	48 83 ec 08          	sub    $0x8,%rsp
  401a9a:	0f be 35 87 36 20 00 	movsbl 0x203687(%rip),%esi        # 605128 <target_prefix>
  401aa1:	b9 20 45 60 00       	mov    $0x604520,%ecx
  401aa6:	8b 15 4c 2a 20 00    	mov    0x202a4c(%rip),%edx        # 6044f8 <check_level>
  401aac:	bf fb 30 40 00       	mov    $0x4030fb,%edi
  401ab1:	b8 00 00 00 00       	mov    $0x0,%eax
  401ab6:	e8 d5 f2 ff ff       	callq  400d90 <printf@plt>
  401abb:	bf 01 00 00 00       	mov    $0x1,%edi
  401ac0:	e8 1b f4 ff ff       	callq  400ee0 <exit@plt>

0000000000401ac5 <Gets>:
  401ac5:	41 54                	push   %r12
  401ac7:	55                   	push   %rbp
  401ac8:	53                   	push   %rbx
  401ac9:	49 89 fc             	mov    %rdi,%r12
  401acc:	c7 05 4e 36 20 00 00 	movl   $0x0,0x20364e(%rip)        # 605124 <gets_cnt>
  401ad3:	00 00 00 
  401ad6:	48 89 fb             	mov    %rdi,%rbx
  401ad9:	eb 11                	jmp    401aec <Gets+0x27>
  401adb:	48 8d 6b 01          	lea    0x1(%rbx),%rbp
  401adf:	88 03                	mov    %al,(%rbx)
  401ae1:	0f b6 f8             	movzbl %al,%edi
  401ae4:	e8 42 ff ff ff       	callq  401a2b <save_char>
  401ae9:	48 89 eb             	mov    %rbp,%rbx
  401aec:	48 8b 3d fd 29 20 00 	mov    0x2029fd(%rip),%rdi        # 6044f0 <infile>
  401af3:	e8 58 f3 ff ff       	callq  400e50 <_IO_getc@plt>
  401af8:	83 f8 ff             	cmp    $0xffffffff,%eax
  401afb:	74 05                	je     401b02 <Gets+0x3d>
  401afd:	83 f8 0a             	cmp    $0xa,%eax
  401b00:	75 d9                	jne    401adb <Gets+0x16>
  401b02:	c6 03 00             	movb   $0x0,(%rbx)
  401b05:	b8 00 00 00 00       	mov    $0x0,%eax
  401b0a:	e8 74 ff ff ff       	callq  401a83 <save_term>
  401b0f:	4c 89 e0             	mov    %r12,%rax
  401b12:	5b                   	pop    %rbx
  401b13:	5d                   	pop    %rbp
  401b14:	41 5c                	pop    %r12
  401b16:	c3                   	retq   

0000000000401b17 <notify_server>:
  401b17:	83 3d ea 29 20 00 00 	cmpl   $0x0,0x2029ea(%rip)        # 604508 <is_checker>
  401b1e:	0f 85 9a 01 00 00    	jne    401cbe <notify_server+0x1a7>
  401b24:	55                   	push   %rbp
  401b25:	53                   	push   %rbx
  401b26:	48 81 ec 08 40 00 00 	sub    $0x4008,%rsp
  401b2d:	89 fb                	mov    %edi,%ebx
  401b2f:	8b 05 ef 35 20 00    	mov    0x2035ef(%rip),%eax        # 605124 <gets_cnt>
  401b35:	83 c0 64             	add    $0x64,%eax
  401b38:	3d 00 20 00 00       	cmp    $0x2000,%eax
  401b3d:	0f 8f b5 00 00 00    	jg     401bf8 <notify_server+0xe1>
  401b43:	44 0f be 0d dd 35 20 	movsbl 0x2035dd(%rip),%r9d        # 605128 <target_prefix>
  401b4a:	00 
  401b4b:	83 3d 36 29 20 00 00 	cmpl   $0x0,0x202936(%rip)        # 604488 <notify>
  401b52:	0f 84 b9 00 00 00    	je     401c11 <notify_server+0xfa>
  401b58:	44 8b 05 a1 29 20 00 	mov    0x2029a1(%rip),%r8d        # 604500 <authkey>
  401b5f:	85 db                	test   %ebx,%ebx
  401b61:	0f 84 b5 00 00 00    	je     401c1c <notify_server+0x105>
  401b67:	bd 11 31 40 00       	mov    $0x403111,%ebp
  401b6c:	68 20 45 60 00       	pushq  $0x604520
  401b71:	56                   	push   %rsi
  401b72:	48 89 e9             	mov    %rbp,%rcx
  401b75:	8b 15 cd 25 20 00    	mov    0x2025cd(%rip),%edx        # 604148 <target_id>
  401b7b:	be 1b 31 40 00       	mov    $0x40311b,%esi
  401b80:	48 8d bc 24 10 20 00 	lea    0x2010(%rsp),%rdi
  401b87:	00 
  401b88:	b8 00 00 00 00       	mov    $0x0,%eax
  401b8d:	e8 3e f3 ff ff       	callq  400ed0 <sprintf@plt>
  401b92:	48 83 c4 10          	add    $0x10,%rsp
  401b96:	83 3d eb 28 20 00 00 	cmpl   $0x0,0x2028eb(%rip)        # 604488 <notify>
  401b9d:	0f 84 ab 00 00 00    	je     401c4e <notify_server+0x137>
  401ba3:	85 db                	test   %ebx,%ebx
  401ba5:	0f 84 97 00 00 00    	je     401c42 <notify_server+0x12b>
  401bab:	49 89 e1             	mov    %rsp,%r9
  401bae:	41 b8 00 00 00 00    	mov    $0x0,%r8d
  401bb4:	48 8d 8c 24 00 20 00 	lea    0x2000(%rsp),%rcx
  401bbb:	00 
  401bbc:	48 8b 15 8d 25 20 00 	mov    0x20258d(%rip),%rdx        # 604150 <lab>
  401bc3:	48 8b 35 8e 25 20 00 	mov    0x20258e(%rip),%rsi        # 604158 <course>
  401bca:	48 8b 3d 6f 25 20 00 	mov    0x20256f(%rip),%rdi        # 604140 <user_id>
  401bd1:	e8 db 0f 00 00       	callq  402bb1 <driver_post>
  401bd6:	85 c0                	test   %eax,%eax
  401bd8:	78 4c                	js     401c26 <notify_server+0x10f>
  401bda:	bf 60 32 40 00       	mov    $0x403260,%edi
  401bdf:	e8 7c f1 ff ff       	callq  400d60 <puts@plt>
  401be4:	bf 43 31 40 00       	mov    $0x403143,%edi
  401be9:	e8 72 f1 ff ff       	callq  400d60 <puts@plt>
  401bee:	48 81 c4 08 40 00 00 	add    $0x4008,%rsp
  401bf5:	5b                   	pop    %rbx
  401bf6:	5d                   	pop    %rbp
  401bf7:	c3                   	retq   
  401bf8:	bf 30 32 40 00       	mov    $0x403230,%edi
  401bfd:	b8 00 00 00 00       	mov    $0x0,%eax
  401c02:	e8 89 f1 ff ff       	callq  400d90 <printf@plt>
  401c07:	bf 01 00 00 00       	mov    $0x1,%edi
  401c0c:	e8 cf f2 ff ff       	callq  400ee0 <exit@plt>
  401c11:	41 b8 ff ff ff ff    	mov    $0xffffffff,%r8d
  401c17:	e9 43 ff ff ff       	jmpq   401b5f <notify_server+0x48>
  401c1c:	bd 16 31 40 00       	mov    $0x403116,%ebp
  401c21:	e9 46 ff ff ff       	jmpq   401b6c <notify_server+0x55>
  401c26:	48 89 e6             	mov    %rsp,%rsi
  401c29:	bf 37 31 40 00       	mov    $0x403137,%edi
  401c2e:	b8 00 00 00 00       	mov    $0x0,%eax
  401c33:	e8 58 f1 ff ff       	callq  400d90 <printf@plt>
  401c38:	bf 01 00 00 00       	mov    $0x1,%edi
  401c3d:	e8 9e f2 ff ff       	callq  400ee0 <exit@plt>
  401c42:	bf 4d 31 40 00       	mov    $0x40314d,%edi
  401c47:	e8 14 f1 ff ff       	callq  400d60 <puts@plt>
  401c4c:	eb a0                	jmp    401bee <notify_server+0xd7>
  401c4e:	48 89 ee             	mov    %rbp,%rsi
  401c51:	bf 98 32 40 00       	mov    $0x403298,%edi
  401c56:	b8 00 00 00 00       	mov    $0x0,%eax
  401c5b:	e8 30 f1 ff ff       	callq  400d90 <printf@plt>
  401c60:	48 8b 35 d9 24 20 00 	mov    0x2024d9(%rip),%rsi        # 604140 <user_id>
  401c67:	bf 54 31 40 00       	mov    $0x403154,%edi
  401c6c:	b8 00 00 00 00       	mov    $0x0,%eax
  401c71:	e8 1a f1 ff ff       	callq  400d90 <printf@plt>
  401c76:	48 8b 35 db 24 20 00 	mov    0x2024db(%rip),%rsi        # 604158 <course>
  401c7d:	bf 61 31 40 00       	mov    $0x403161,%edi
  401c82:	b8 00 00 00 00       	mov    $0x0,%eax
  401c87:	e8 04 f1 ff ff       	callq  400d90 <printf@plt>
  401c8c:	48 8b 35 bd 24 20 00 	mov    0x2024bd(%rip),%rsi        # 604150 <lab>
  401c93:	bf 6d 31 40 00       	mov    $0x40316d,%edi
  401c98:	b8 00 00 00 00       	mov    $0x0,%eax
  401c9d:	e8 ee f0 ff ff       	callq  400d90 <printf@plt>
  401ca2:	48 8d b4 24 00 20 00 	lea    0x2000(%rsp),%rsi
  401ca9:	00 
  401caa:	bf 76 31 40 00       	mov    $0x403176,%edi
  401caf:	b8 00 00 00 00       	mov    $0x0,%eax
  401cb4:	e8 d7 f0 ff ff       	callq  400d90 <printf@plt>
  401cb9:	e9 30 ff ff ff       	jmpq   401bee <notify_server+0xd7>
  401cbe:	f3 c3                	repz retq 

0000000000401cc0 <validate>:
  401cc0:	53                   	push   %rbx
  401cc1:	89 fb                	mov    %edi,%ebx
  401cc3:	83 3d 3e 28 20 00 00 	cmpl   $0x0,0x20283e(%rip)        # 604508 <is_checker>
  401cca:	74 60                	je     401d2c <validate+0x6c>
  401ccc:	39 3d 2a 28 20 00    	cmp    %edi,0x20282a(%rip)        # 6044fc <vlevel>
  401cd2:	75 29                	jne    401cfd <validate+0x3d>
  401cd4:	8b 35 1e 28 20 00    	mov    0x20281e(%rip),%esi        # 6044f8 <check_level>
  401cda:	39 fe                	cmp    %edi,%esi
  401cdc:	75 33                	jne    401d11 <validate+0x51>
  401cde:	0f be 35 43 34 20 00 	movsbl 0x203443(%rip),%esi        # 605128 <target_prefix>
  401ce5:	b9 20 45 60 00       	mov    $0x604520,%ecx
  401cea:	89 fa                	mov    %edi,%edx
  401cec:	bf a0 31 40 00       	mov    $0x4031a0,%edi
  401cf1:	b8 00 00 00 00       	mov    $0x0,%eax
  401cf6:	e8 95 f0 ff ff       	callq  400d90 <printf@plt>
  401cfb:	5b                   	pop    %rbx
  401cfc:	c3                   	retq   
  401cfd:	bf 82 31 40 00       	mov    $0x403182,%edi
  401d02:	e8 59 f0 ff ff       	callq  400d60 <puts@plt>
  401d07:	b8 00 00 00 00       	mov    $0x0,%eax
  401d0c:	e8 85 fd ff ff       	callq  401a96 <check_fail>
  401d11:	89 fa                	mov    %edi,%edx
  401d13:	bf c0 32 40 00       	mov    $0x4032c0,%edi
  401d18:	b8 00 00 00 00       	mov    $0x0,%eax
  401d1d:	e8 6e f0 ff ff       	callq  400d90 <printf@plt>
  401d22:	b8 00 00 00 00       	mov    $0x0,%eax
  401d27:	e8 6a fd ff ff       	callq  401a96 <check_fail>
  401d2c:	39 3d ca 27 20 00    	cmp    %edi,0x2027ca(%rip)        # 6044fc <vlevel>
  401d32:	74 18                	je     401d4c <validate+0x8c>
  401d34:	bf 82 31 40 00       	mov    $0x403182,%edi
  401d39:	e8 22 f0 ff ff       	callq  400d60 <puts@plt>
  401d3e:	89 de                	mov    %ebx,%esi
  401d40:	bf 00 00 00 00       	mov    $0x0,%edi
  401d45:	e8 cd fd ff ff       	callq  401b17 <notify_server>
  401d4a:	eb af                	jmp    401cfb <validate+0x3b>
  401d4c:	0f be 15 d5 33 20 00 	movsbl 0x2033d5(%rip),%edx        # 605128 <target_prefix>
  401d53:	89 fe                	mov    %edi,%esi
  401d55:	bf e8 32 40 00       	mov    $0x4032e8,%edi
  401d5a:	b8 00 00 00 00       	mov    $0x0,%eax
  401d5f:	e8 2c f0 ff ff       	callq  400d90 <printf@plt>
  401d64:	89 de                	mov    %ebx,%esi
  401d66:	bf 01 00 00 00       	mov    $0x1,%edi
  401d6b:	e8 a7 fd ff ff       	callq  401b17 <notify_server>
  401d70:	eb 89                	jmp    401cfb <validate+0x3b>

0000000000401d72 <fail>:
  401d72:	48 83 ec 08          	sub    $0x8,%rsp
  401d76:	83 3d 8b 27 20 00 00 	cmpl   $0x0,0x20278b(%rip)        # 604508 <is_checker>
  401d7d:	75 11                	jne    401d90 <fail+0x1e>
  401d7f:	89 fe                	mov    %edi,%esi
  401d81:	bf 00 00 00 00       	mov    $0x0,%edi
  401d86:	e8 8c fd ff ff       	callq  401b17 <notify_server>
  401d8b:	48 83 c4 08          	add    $0x8,%rsp
  401d8f:	c3                   	retq   
  401d90:	b8 00 00 00 00       	mov    $0x0,%eax
  401d95:	e8 fc fc ff ff       	callq  401a96 <check_fail>

0000000000401d9a <bushandler>:
  401d9a:	48 83 ec 08          	sub    $0x8,%rsp
  401d9e:	83 3d 63 27 20 00 00 	cmpl   $0x0,0x202763(%rip)        # 604508 <is_checker>
  401da5:	74 14                	je     401dbb <bushandler+0x21>
  401da7:	bf b5 31 40 00       	mov    $0x4031b5,%edi
  401dac:	e8 af ef ff ff       	callq  400d60 <puts@plt>
  401db1:	b8 00 00 00 00       	mov    $0x0,%eax
  401db6:	e8 db fc ff ff       	callq  401a96 <check_fail>
  401dbb:	bf 20 33 40 00       	mov    $0x403320,%edi
  401dc0:	e8 9b ef ff ff       	callq  400d60 <puts@plt>
  401dc5:	bf bf 31 40 00       	mov    $0x4031bf,%edi
  401dca:	e8 91 ef ff ff       	callq  400d60 <puts@plt>
  401dcf:	be 00 00 00 00       	mov    $0x0,%esi
  401dd4:	bf 00 00 00 00       	mov    $0x0,%edi
  401dd9:	e8 39 fd ff ff       	callq  401b17 <notify_server>
  401dde:	bf 01 00 00 00       	mov    $0x1,%edi
  401de3:	e8 f8 f0 ff ff       	callq  400ee0 <exit@plt>

0000000000401de8 <seghandler>:
  401de8:	48 83 ec 08          	sub    $0x8,%rsp
  401dec:	83 3d 15 27 20 00 00 	cmpl   $0x0,0x202715(%rip)        # 604508 <is_checker>
  401df3:	74 14                	je     401e09 <seghandler+0x21>
  401df5:	bf d5 31 40 00       	mov    $0x4031d5,%edi
  401dfa:	e8 61 ef ff ff       	callq  400d60 <puts@plt>
  401dff:	b8 00 00 00 00       	mov    $0x0,%eax
  401e04:	e8 8d fc ff ff       	callq  401a96 <check_fail>
  401e09:	bf 40 33 40 00       	mov    $0x403340,%edi
  401e0e:	e8 4d ef ff ff       	callq  400d60 <puts@plt>
  401e13:	bf bf 31 40 00       	mov    $0x4031bf,%edi
  401e18:	e8 43 ef ff ff       	callq  400d60 <puts@plt>
  401e1d:	be 00 00 00 00       	mov    $0x0,%esi
  401e22:	bf 00 00 00 00       	mov    $0x0,%edi
  401e27:	e8 eb fc ff ff       	callq  401b17 <notify_server>
  401e2c:	bf 01 00 00 00       	mov    $0x1,%edi
  401e31:	e8 aa f0 ff ff       	callq  400ee0 <exit@plt>

0000000000401e36 <illegalhandler>:
  401e36:	48 83 ec 08          	sub    $0x8,%rsp
  401e3a:	83 3d c7 26 20 00 00 	cmpl   $0x0,0x2026c7(%rip)        # 604508 <is_checker>
  401e41:	74 14                	je     401e57 <illegalhandler+0x21>
  401e43:	bf e8 31 40 00       	mov    $0x4031e8,%edi
  401e48:	e8 13 ef ff ff       	callq  400d60 <puts@plt>
  401e4d:	b8 00 00 00 00       	mov    $0x0,%eax
  401e52:	e8 3f fc ff ff       	callq  401a96 <check_fail>
  401e57:	bf 68 33 40 00       	mov    $0x403368,%edi
  401e5c:	e8 ff ee ff ff       	callq  400d60 <puts@plt>
  401e61:	bf bf 31 40 00       	mov    $0x4031bf,%edi
  401e66:	e8 f5 ee ff ff       	callq  400d60 <puts@plt>
  401e6b:	be 00 00 00 00       	mov    $0x0,%esi
  401e70:	bf 00 00 00 00       	mov    $0x0,%edi
  401e75:	e8 9d fc ff ff       	callq  401b17 <notify_server>
  401e7a:	bf 01 00 00 00       	mov    $0x1,%edi
  401e7f:	e8 5c f0 ff ff       	callq  400ee0 <exit@plt>

0000000000401e84 <sigalrmhandler>:
  401e84:	48 83 ec 08          	sub    $0x8,%rsp
  401e88:	83 3d 79 26 20 00 00 	cmpl   $0x0,0x202679(%rip)        # 604508 <is_checker>
  401e8f:	74 14                	je     401ea5 <sigalrmhandler+0x21>
  401e91:	bf fc 31 40 00       	mov    $0x4031fc,%edi
  401e96:	e8 c5 ee ff ff       	callq  400d60 <puts@plt>
  401e9b:	b8 00 00 00 00       	mov    $0x0,%eax
  401ea0:	e8 f1 fb ff ff       	callq  401a96 <check_fail>
  401ea5:	be 05 00 00 00       	mov    $0x5,%esi
  401eaa:	bf 98 33 40 00       	mov    $0x403398,%edi
  401eaf:	b8 00 00 00 00       	mov    $0x0,%eax
  401eb4:	e8 d7 ee ff ff       	callq  400d90 <printf@plt>
  401eb9:	be 00 00 00 00       	mov    $0x0,%esi
  401ebe:	bf 00 00 00 00       	mov    $0x0,%edi
  401ec3:	e8 4f fc ff ff       	callq  401b17 <notify_server>
  401ec8:	bf 01 00 00 00       	mov    $0x1,%edi
  401ecd:	e8 0e f0 ff ff       	callq  400ee0 <exit@plt>

0000000000401ed2 <launch>:
  401ed2:	55                   	push   %rbp
  401ed3:	48 89 e5             	mov    %rsp,%rbp
  401ed6:	48 89 fa             	mov    %rdi,%rdx
  401ed9:	48 8d 47 1e          	lea    0x1e(%rdi),%rax
  401edd:	48 83 e0 f0          	and    $0xfffffffffffffff0,%rax
  401ee1:	48 29 c4             	sub    %rax,%rsp
  401ee4:	48 8d 7c 24 0f       	lea    0xf(%rsp),%rdi
  401ee9:	48 83 e7 f0          	and    $0xfffffffffffffff0,%rdi
  401eed:	be f4 00 00 00       	mov    $0xf4,%esi
  401ef2:	e8 a9 ee ff ff       	callq  400da0 <memset@plt>
  401ef7:	48 8b 05 a2 25 20 00 	mov    0x2025a2(%rip),%rax        # 6044a0 <stdin@@GLIBC_2.2.5>
  401efe:	48 39 05 eb 25 20 00 	cmp    %rax,0x2025eb(%rip)        # 6044f0 <infile>
  401f05:	74 29                	je     401f30 <launch+0x5e>
  401f07:	c7 05 eb 25 20 00 00 	movl   $0x0,0x2025eb(%rip)        # 6044fc <vlevel>
  401f0e:	00 00 00 
  401f11:	b8 00 00 00 00       	mov    $0x0,%eax
  401f16:	e8 ec fa ff ff       	callq  401a07 <test>
  401f1b:	83 3d e6 25 20 00 00 	cmpl   $0x0,0x2025e6(%rip)        # 604508 <is_checker>
  401f22:	75 1d                	jne    401f41 <launch+0x6f>
  401f24:	bf 1c 32 40 00       	mov    $0x40321c,%edi
  401f29:	e8 32 ee ff ff       	callq  400d60 <puts@plt>
  401f2e:	c9                   	leaveq 
  401f2f:	c3                   	retq   
  401f30:	bf 04 32 40 00       	mov    $0x403204,%edi
  401f35:	b8 00 00 00 00       	mov    $0x0,%eax
  401f3a:	e8 51 ee ff ff       	callq  400d90 <printf@plt>
  401f3f:	eb c6                	jmp    401f07 <launch+0x35>
  401f41:	bf 11 32 40 00       	mov    $0x403211,%edi
  401f46:	e8 15 ee ff ff       	callq  400d60 <puts@plt>
  401f4b:	b8 00 00 00 00       	mov    $0x0,%eax
  401f50:	e8 41 fb ff ff       	callq  401a96 <check_fail>

0000000000401f55 <stable_launch>:
  401f55:	53                   	push   %rbx
  401f56:	48 89 3d 8b 25 20 00 	mov    %rdi,0x20258b(%rip)        # 6044e8 <global_offset>
  401f5d:	41 b9 00 00 00 00    	mov    $0x0,%r9d
  401f63:	41 b8 00 00 00 00    	mov    $0x0,%r8d
  401f69:	b9 32 01 00 00       	mov    $0x132,%ecx
  401f6e:	ba 07 00 00 00       	mov    $0x7,%edx
  401f73:	be 00 00 10 00       	mov    $0x100000,%esi
  401f78:	bf 00 60 58 55       	mov    $0x55586000,%edi
  401f7d:	e8 fe ed ff ff       	callq  400d80 <mmap@plt>
  401f82:	48 89 c3             	mov    %rax,%rbx
  401f85:	48 3d 00 60 58 55    	cmp    $0x55586000,%rax
  401f8b:	75 43                	jne    401fd0 <stable_launch+0x7b>
  401f8d:	48 8d 90 f8 ff 0f 00 	lea    0xffff8(%rax),%rdx
  401f94:	48 89 15 95 31 20 00 	mov    %rdx,0x203195(%rip)        # 605130 <stack_top>
  401f9b:	48 89 e0             	mov    %rsp,%rax
  401f9e:	48 89 d4             	mov    %rdx,%rsp
  401fa1:	48 89 c2             	mov    %rax,%rdx
  401fa4:	48 89 15 35 25 20 00 	mov    %rdx,0x202535(%rip)        # 6044e0 <global_save_stack>
  401fab:	48 8b 3d 36 25 20 00 	mov    0x202536(%rip),%rdi        # 6044e8 <global_offset>
  401fb2:	e8 1b ff ff ff       	callq  401ed2 <launch>
  401fb7:	48 8b 05 22 25 20 00 	mov    0x202522(%rip),%rax        # 6044e0 <global_save_stack>
  401fbe:	48 89 c4             	mov    %rax,%rsp
  401fc1:	be 00 00 10 00       	mov    $0x100000,%esi
  401fc6:	48 89 df             	mov    %rbx,%rdi
  401fc9:	e8 a2 ee ff ff       	callq  400e70 <munmap@plt>
  401fce:	5b                   	pop    %rbx
  401fcf:	c3                   	retq   
  401fd0:	be 00 00 10 00       	mov    $0x100000,%esi
  401fd5:	48 89 c7             	mov    %rax,%rdi
  401fd8:	e8 93 ee ff ff       	callq  400e70 <munmap@plt>
  401fdd:	ba 00 60 58 55       	mov    $0x55586000,%edx
  401fe2:	be d0 33 40 00       	mov    $0x4033d0,%esi
  401fe7:	48 8b 3d d2 24 20 00 	mov    0x2024d2(%rip),%rdi        # 6044c0 <stderr@@GLIBC_2.2.5>
  401fee:	b8 00 00 00 00       	mov    $0x0,%eax
  401ff3:	e8 08 ee ff ff       	callq  400e00 <fprintf@plt>
  401ff8:	bf 01 00 00 00       	mov    $0x1,%edi
  401ffd:	e8 de ee ff ff       	callq  400ee0 <exit@plt>

0000000000402002 <rio_readinitb>:
  402002:	89 37                	mov    %esi,(%rdi)
  402004:	c7 47 04 00 00 00 00 	movl   $0x0,0x4(%rdi)
  40200b:	48 8d 47 10          	lea    0x10(%rdi),%rax
  40200f:	48 89 47 08          	mov    %rax,0x8(%rdi)
  402013:	c3                   	retq   

0000000000402014 <sigalrm_handler>:
  402014:	48 83 ec 08          	sub    $0x8,%rsp
  402018:	ba 00 00 00 00       	mov    $0x0,%edx
  40201d:	be 10 34 40 00       	mov    $0x403410,%esi
  402022:	48 8b 3d 97 24 20 00 	mov    0x202497(%rip),%rdi        # 6044c0 <stderr@@GLIBC_2.2.5>
  402029:	b8 00 00 00 00       	mov    $0x0,%eax
  40202e:	e8 cd ed ff ff       	callq  400e00 <fprintf@plt>
  402033:	bf 01 00 00 00       	mov    $0x1,%edi
  402038:	e8 a3 ee ff ff       	callq  400ee0 <exit@plt>

000000000040203d <urlencode>:
  40203d:	41 54                	push   %r12
  40203f:	55                   	push   %rbp
  402040:	53                   	push   %rbx
  402041:	48 83 ec 10          	sub    $0x10,%rsp
  402045:	48 89 fb             	mov    %rdi,%rbx
  402048:	48 89 f5             	mov    %rsi,%rbp
  40204b:	48 c7 c1 ff ff ff ff 	mov    $0xffffffffffffffff,%rcx
  402052:	b8 00 00 00 00       	mov    $0x0,%eax
  402057:	f2 ae                	repnz scas %es:(%rdi),%al
  402059:	48 89 ce             	mov    %rcx,%rsi
  40205c:	48 f7 d6             	not    %rsi
  40205f:	8d 46 ff             	lea    -0x1(%rsi),%eax
  402062:	eb 0e                	jmp    402072 <urlencode+0x35>
  402064:	88 45 00             	mov    %al,0x0(%rbp)
  402067:	48 8d 6d 01          	lea    0x1(%rbp),%rbp
  40206b:	48 83 c3 01          	add    $0x1,%rbx
  40206f:	44 89 e0             	mov    %r12d,%eax
  402072:	44 8d 60 ff          	lea    -0x1(%rax),%r12d
  402076:	85 c0                	test   %eax,%eax
  402078:	0f 84 91 00 00 00    	je     40210f <urlencode+0xd2>
  40207e:	0f b6 03             	movzbl (%rbx),%eax
  402081:	3c 2a                	cmp    $0x2a,%al
  402083:	0f 94 c1             	sete   %cl
  402086:	3c 2d                	cmp    $0x2d,%al
  402088:	0f 94 c2             	sete   %dl
  40208b:	08 d1                	or     %dl,%cl
  40208d:	75 d5                	jne    402064 <urlencode+0x27>
  40208f:	3c 2e                	cmp    $0x2e,%al
  402091:	74 d1                	je     402064 <urlencode+0x27>
  402093:	3c 5f                	cmp    $0x5f,%al
  402095:	74 cd                	je     402064 <urlencode+0x27>
  402097:	8d 50 d0             	lea    -0x30(%rax),%edx
  40209a:	80 fa 09             	cmp    $0x9,%dl
  40209d:	76 c5                	jbe    402064 <urlencode+0x27>
  40209f:	8d 50 bf             	lea    -0x41(%rax),%edx
  4020a2:	80 fa 19             	cmp    $0x19,%dl
  4020a5:	76 bd                	jbe    402064 <urlencode+0x27>
  4020a7:	8d 50 9f             	lea    -0x61(%rax),%edx
  4020aa:	80 fa 19             	cmp    $0x19,%dl
  4020ad:	76 b5                	jbe    402064 <urlencode+0x27>
  4020af:	3c 20                	cmp    $0x20,%al
  4020b1:	74 4a                	je     4020fd <urlencode+0xc0>
  4020b3:	8d 50 e0             	lea    -0x20(%rax),%edx
  4020b6:	80 fa 5f             	cmp    $0x5f,%dl
  4020b9:	0f 96 c1             	setbe  %cl
  4020bc:	3c 09                	cmp    $0x9,%al
  4020be:	0f 94 c2             	sete   %dl
  4020c1:	08 d1                	or     %dl,%cl
  4020c3:	74 45                	je     40210a <urlencode+0xcd>
  4020c5:	0f b6 d0             	movzbl %al,%edx
  4020c8:	be a8 34 40 00       	mov    $0x4034a8,%esi
  4020cd:	48 8d 7c 24 08       	lea    0x8(%rsp),%rdi
  4020d2:	b8 00 00 00 00       	mov    $0x0,%eax
  4020d7:	e8 f4 ed ff ff       	callq  400ed0 <sprintf@plt>
  4020dc:	0f b6 44 24 08       	movzbl 0x8(%rsp),%eax
  4020e1:	88 45 00             	mov    %al,0x0(%rbp)
  4020e4:	0f b6 44 24 09       	movzbl 0x9(%rsp),%eax
  4020e9:	88 45 01             	mov    %al,0x1(%rbp)
  4020ec:	0f b6 44 24 0a       	movzbl 0xa(%rsp),%eax
  4020f1:	88 45 02             	mov    %al,0x2(%rbp)
  4020f4:	48 8d 6d 03          	lea    0x3(%rbp),%rbp
  4020f8:	e9 6e ff ff ff       	jmpq   40206b <urlencode+0x2e>
  4020fd:	c6 45 00 2b          	movb   $0x2b,0x0(%rbp)
  402101:	48 8d 6d 01          	lea    0x1(%rbp),%rbp
  402105:	e9 61 ff ff ff       	jmpq   40206b <urlencode+0x2e>
  40210a:	b8 ff ff ff ff       	mov    $0xffffffff,%eax
  40210f:	48 83 c4 10          	add    $0x10,%rsp
  402113:	5b                   	pop    %rbx
  402114:	5d                   	pop    %rbp
  402115:	41 5c                	pop    %r12
  402117:	c3                   	retq   

0000000000402118 <rio_writen>:
  402118:	41 55                	push   %r13
  40211a:	41 54                	push   %r12
  40211c:	55                   	push   %rbp
  40211d:	53                   	push   %rbx
  40211e:	48 83 ec 08          	sub    $0x8,%rsp
  402122:	41 89 fc             	mov    %edi,%r12d
  402125:	48 89 f5             	mov    %rsi,%rbp
  402128:	49 89 d5             	mov    %rdx,%r13
  40212b:	48 89 d3             	mov    %rdx,%rbx
  40212e:	eb 06                	jmp    402136 <rio_writen+0x1e>
  402130:	48 29 c3             	sub    %rax,%rbx
  402133:	48 01 c5             	add    %rax,%rbp
  402136:	48 85 db             	test   %rbx,%rbx
  402139:	74 24                	je     40215f <rio_writen+0x47>
  40213b:	48 89 da             	mov    %rbx,%rdx
  40213e:	48 89 ee             	mov    %rbp,%rsi
  402141:	44 89 e7             	mov    %r12d,%edi
  402144:	e8 27 ec ff ff       	callq  400d70 <write@plt>
  402149:	48 85 c0             	test   %rax,%rax
  40214c:	7f e2                	jg     402130 <rio_writen+0x18>
  40214e:	e8 cd eb ff ff       	callq  400d20 <__errno_location@plt>
  402153:	83 38 04             	cmpl   $0x4,(%rax)
  402156:	75 15                	jne    40216d <rio_writen+0x55>
  402158:	b8 00 00 00 00       	mov    $0x0,%eax
  40215d:	eb d1                	jmp    402130 <rio_writen+0x18>
  40215f:	4c 89 e8             	mov    %r13,%rax
  402162:	48 83 c4 08          	add    $0x8,%rsp
  402166:	5b                   	pop    %rbx
  402167:	5d                   	pop    %rbp
  402168:	41 5c                	pop    %r12
  40216a:	41 5d                	pop    %r13
  40216c:	c3                   	retq   
  40216d:	48 c7 c0 ff ff ff ff 	mov    $0xffffffffffffffff,%rax
  402174:	eb ec                	jmp    402162 <rio_writen+0x4a>

0000000000402176 <rio_read>:
  402176:	41 55                	push   %r13
  402178:	41 54                	push   %r12
  40217a:	55                   	push   %rbp
  40217b:	53                   	push   %rbx
  40217c:	48 83 ec 08          	sub    $0x8,%rsp
  402180:	48 89 fb             	mov    %rdi,%rbx
  402183:	49 89 f5             	mov    %rsi,%r13
  402186:	49 89 d4             	mov    %rdx,%r12
  402189:	eb 0a                	jmp    402195 <rio_read+0x1f>
  40218b:	e8 90 eb ff ff       	callq  400d20 <__errno_location@plt>
  402190:	83 38 04             	cmpl   $0x4,(%rax)
  402193:	75 5c                	jne    4021f1 <rio_read+0x7b>
  402195:	8b 6b 04             	mov    0x4(%rbx),%ebp
  402198:	85 ed                	test   %ebp,%ebp
  40219a:	7f 24                	jg     4021c0 <rio_read+0x4a>
  40219c:	48 8d 6b 10          	lea    0x10(%rbx),%rbp
  4021a0:	ba 00 20 00 00       	mov    $0x2000,%edx
  4021a5:	48 89 ee             	mov    %rbp,%rsi
  4021a8:	8b 3b                	mov    (%rbx),%edi
  4021aa:	e8 21 ec ff ff       	callq  400dd0 <read@plt>
  4021af:	89 43 04             	mov    %eax,0x4(%rbx)
  4021b2:	85 c0                	test   %eax,%eax
  4021b4:	78 d5                	js     40218b <rio_read+0x15>
  4021b6:	85 c0                	test   %eax,%eax
  4021b8:	74 40                	je     4021fa <rio_read+0x84>
  4021ba:	48 89 6b 08          	mov    %rbp,0x8(%rbx)
  4021be:	eb d5                	jmp    402195 <rio_read+0x1f>
  4021c0:	89 e8                	mov    %ebp,%eax
  4021c2:	4c 39 e0             	cmp    %r12,%rax
  4021c5:	72 03                	jb     4021ca <rio_read+0x54>
  4021c7:	44 89 e5             	mov    %r12d,%ebp
  4021ca:	4c 63 e5             	movslq %ebp,%r12
  4021cd:	48 8b 73 08          	mov    0x8(%rbx),%rsi
  4021d1:	4c 89 e2             	mov    %r12,%rdx
  4021d4:	4c 89 ef             	mov    %r13,%rdi
  4021d7:	e8 44 ec ff ff       	callq  400e20 <memcpy@plt>
  4021dc:	4c 01 63 08          	add    %r12,0x8(%rbx)
  4021e0:	29 6b 04             	sub    %ebp,0x4(%rbx)
  4021e3:	4c 89 e0             	mov    %r12,%rax
  4021e6:	48 83 c4 08          	add    $0x8,%rsp
  4021ea:	5b                   	pop    %rbx
  4021eb:	5d                   	pop    %rbp
  4021ec:	41 5c                	pop    %r12
  4021ee:	41 5d                	pop    %r13
  4021f0:	c3                   	retq   
  4021f1:	48 c7 c0 ff ff ff ff 	mov    $0xffffffffffffffff,%rax
  4021f8:	eb ec                	jmp    4021e6 <rio_read+0x70>
  4021fa:	b8 00 00 00 00       	mov    $0x0,%eax
  4021ff:	eb e5                	jmp    4021e6 <rio_read+0x70>

0000000000402201 <rio_readlineb>:
  402201:	41 55                	push   %r13
  402203:	41 54                	push   %r12
  402205:	55                   	push   %rbp
  402206:	53                   	push   %rbx
  402207:	48 83 ec 18          	sub    $0x18,%rsp
  40220b:	49 89 fd             	mov    %rdi,%r13
  40220e:	48 89 f5             	mov    %rsi,%rbp
  402211:	49 89 d4             	mov    %rdx,%r12
  402214:	bb 01 00 00 00       	mov    $0x1,%ebx
  402219:	4c 39 e3             	cmp    %r12,%rbx
  40221c:	73 47                	jae    402265 <rio_readlineb+0x64>
  40221e:	ba 01 00 00 00       	mov    $0x1,%edx
  402223:	48 8d 74 24 0f       	lea    0xf(%rsp),%rsi
  402228:	4c 89 ef             	mov    %r13,%rdi
  40222b:	e8 46 ff ff ff       	callq  402176 <rio_read>
  402230:	83 f8 01             	cmp    $0x1,%eax
  402233:	75 1c                	jne    402251 <rio_readlineb+0x50>
  402235:	48 8d 45 01          	lea    0x1(%rbp),%rax
  402239:	0f b6 54 24 0f       	movzbl 0xf(%rsp),%edx
  40223e:	88 55 00             	mov    %dl,0x0(%rbp)
  402241:	80 7c 24 0f 0a       	cmpb   $0xa,0xf(%rsp)
  402246:	74 1a                	je     402262 <rio_readlineb+0x61>
  402248:	48 83 c3 01          	add    $0x1,%rbx
  40224c:	48 89 c5             	mov    %rax,%rbp
  40224f:	eb c8                	jmp    402219 <rio_readlineb+0x18>
  402251:	85 c0                	test   %eax,%eax
  402253:	75 22                	jne    402277 <rio_readlineb+0x76>
  402255:	48 83 fb 01          	cmp    $0x1,%rbx
  402259:	75 0a                	jne    402265 <rio_readlineb+0x64>
  40225b:	b8 00 00 00 00       	mov    $0x0,%eax
  402260:	eb 0a                	jmp    40226c <rio_readlineb+0x6b>
  402262:	48 89 c5             	mov    %rax,%rbp
  402265:	c6 45 00 00          	movb   $0x0,0x0(%rbp)
  402269:	48 89 d8             	mov    %rbx,%rax
  40226c:	48 83 c4 18          	add    $0x18,%rsp
  402270:	5b                   	pop    %rbx
  402271:	5d                   	pop    %rbp
  402272:	41 5c                	pop    %r12
  402274:	41 5d                	pop    %r13
  402276:	c3                   	retq   
  402277:	48 c7 c0 ff ff ff ff 	mov    $0xffffffffffffffff,%rax
  40227e:	eb ec                	jmp    40226c <rio_readlineb+0x6b>

0000000000402280 <submitr>:
  402280:	41 57                	push   %r15
  402282:	41 56                	push   %r14
  402284:	41 55                	push   %r13
  402286:	41 54                	push   %r12
  402288:	55                   	push   %rbp
  402289:	53                   	push   %rbx
  40228a:	48 81 ec 48 a0 00 00 	sub    $0xa048,%rsp
  402291:	49 89 fc             	mov    %rdi,%r12
  402294:	89 74 24 04          	mov    %esi,0x4(%rsp)
  402298:	49 89 d7             	mov    %rdx,%r15
  40229b:	49 89 ce             	mov    %rcx,%r14
  40229e:	4c 89 44 24 08       	mov    %r8,0x8(%rsp)
  4022a3:	4d 89 cd             	mov    %r9,%r13
  4022a6:	48 8b ac 24 80 a0 00 	mov    0xa080(%rsp),%rbp
  4022ad:	00 
  4022ae:	c7 84 24 1c 20 00 00 	movl   $0x0,0x201c(%rsp)
  4022b5:	00 00 00 00 
  4022b9:	ba 00 00 00 00       	mov    $0x0,%edx
  4022be:	be 01 00 00 00       	mov    $0x1,%esi
  4022c3:	bf 02 00 00 00       	mov    $0x2,%edi
  4022c8:	e8 33 ec ff ff       	callq  400f00 <socket@plt>
  4022cd:	85 c0                	test   %eax,%eax
  4022cf:	0f 88 86 02 00 00    	js     40255b <submitr+0x2db>
  4022d5:	89 c3                	mov    %eax,%ebx
  4022d7:	4c 89 e7             	mov    %r12,%rdi
  4022da:	e8 11 eb ff ff       	callq  400df0 <gethostbyname@plt>
  4022df:	48 85 c0             	test   %rax,%rax
  4022e2:	0f 84 bf 02 00 00    	je     4025a7 <submitr+0x327>
  4022e8:	48 c7 84 24 30 a0 00 	movq   $0x0,0xa030(%rsp)
  4022ef:	00 00 00 00 00 
  4022f4:	48 c7 84 24 38 a0 00 	movq   $0x0,0xa038(%rsp)
  4022fb:	00 00 00 00 00 
  402300:	66 c7 84 24 30 a0 00 	movw   $0x2,0xa030(%rsp)
  402307:	00 02 00 
  40230a:	48 8b 48 18          	mov    0x18(%rax),%rcx
  40230e:	48 63 50 14          	movslq 0x14(%rax),%rdx
  402312:	48 8d b4 24 34 a0 00 	lea    0xa034(%rsp),%rsi
  402319:	00 
  40231a:	48 8b 39             	mov    (%rcx),%rdi
  40231d:	e8 5e eb ff ff       	callq  400e80 <bcopy@plt>
  402322:	0f b7 44 24 04       	movzwl 0x4(%rsp),%eax
  402327:	66 c1 c8 08          	ror    $0x8,%ax
  40232b:	66 89 84 24 32 a0 00 	mov    %ax,0xa032(%rsp)
  402332:	00 
  402333:	ba 10 00 00 00       	mov    $0x10,%edx
  402338:	48 8d b4 24 30 a0 00 	lea    0xa030(%rsp),%rsi
  40233f:	00 
  402340:	89 df                	mov    %ebx,%edi
  402342:	e8 a9 eb ff ff       	callq  400ef0 <connect@plt>
  402347:	85 c0                	test   %eax,%eax
  402349:	0f 88 c0 02 00 00    	js     40260f <submitr+0x38f>
  40234f:	48 c7 c6 ff ff ff ff 	mov    $0xffffffffffffffff,%rsi
  402356:	b8 00 00 00 00       	mov    $0x0,%eax
  40235b:	48 89 f1             	mov    %rsi,%rcx
  40235e:	4c 89 ef             	mov    %r13,%rdi
  402361:	f2 ae                	repnz scas %es:(%rdi),%al
  402363:	48 89 ca             	mov    %rcx,%rdx
  402366:	48 f7 d2             	not    %rdx
  402369:	48 89 f1             	mov    %rsi,%rcx
  40236c:	4c 89 ff             	mov    %r15,%rdi
  40236f:	f2 ae                	repnz scas %es:(%rdi),%al
  402371:	48 f7 d1             	not    %rcx
  402374:	49 89 c8             	mov    %rcx,%r8
  402377:	48 89 f1             	mov    %rsi,%rcx
  40237a:	4c 89 f7             	mov    %r14,%rdi
  40237d:	f2 ae                	repnz scas %es:(%rdi),%al
  40237f:	48 f7 d1             	not    %rcx
  402382:	4d 8d 44 08 fe       	lea    -0x2(%r8,%rcx,1),%r8
  402387:	48 89 f1             	mov    %rsi,%rcx
  40238a:	48 8b 7c 24 08       	mov    0x8(%rsp),%rdi
  40238f:	f2 ae                	repnz scas %es:(%rdi),%al
  402391:	48 89 c8             	mov    %rcx,%rax
  402394:	48 f7 d0             	not    %rax
  402397:	49 8d 4c 00 ff       	lea    -0x1(%r8,%rax,1),%rcx
  40239c:	48 8d 44 52 fd       	lea    -0x3(%rdx,%rdx,2),%rax
  4023a1:	48 8d 84 01 80 00 00 	lea    0x80(%rcx,%rax,1),%rax
  4023a8:	00 
  4023a9:	48 3d 00 20 00 00    	cmp    $0x2000,%rax
  4023af:	0f 87 b4 02 00 00    	ja     402669 <submitr+0x3e9>
  4023b5:	48 8d b4 24 20 40 00 	lea    0x4020(%rsp),%rsi
  4023bc:	00 
  4023bd:	b9 00 04 00 00       	mov    $0x400,%ecx
  4023c2:	b8 00 00 00 00       	mov    $0x0,%eax
  4023c7:	48 89 f7             	mov    %rsi,%rdi
  4023ca:	f3 48 ab             	rep stos %rax,%es:(%rdi)
  4023cd:	4c 89 ef             	mov    %r13,%rdi
  4023d0:	e8 68 fc ff ff       	callq  40203d <urlencode>
  4023d5:	85 c0                	test   %eax,%eax
  4023d7:	0f 88 ff 02 00 00    	js     4026dc <submitr+0x45c>
  4023dd:	4c 8d ac 24 20 60 00 	lea    0x6020(%rsp),%r13
  4023e4:	00 
  4023e5:	4d 89 e1             	mov    %r12,%r9
  4023e8:	4c 8d 84 24 20 40 00 	lea    0x4020(%rsp),%r8
  4023ef:	00 
  4023f0:	4c 89 f9             	mov    %r15,%rcx
  4023f3:	4c 89 f2             	mov    %r14,%rdx
  4023f6:	be 38 34 40 00       	mov    $0x403438,%esi
  4023fb:	4c 89 ef             	mov    %r13,%rdi
  4023fe:	b8 00 00 00 00       	mov    $0x0,%eax
  402403:	e8 c8 ea ff ff       	callq  400ed0 <sprintf@plt>
  402408:	48 c7 c1 ff ff ff ff 	mov    $0xffffffffffffffff,%rcx
  40240f:	b8 00 00 00 00       	mov    $0x0,%eax
  402414:	4c 89 ef             	mov    %r13,%rdi
  402417:	f2 ae                	repnz scas %es:(%rdi),%al
  402419:	48 89 ca             	mov    %rcx,%rdx
  40241c:	48 f7 d2             	not    %rdx
  40241f:	48 8d 52 ff          	lea    -0x1(%rdx),%rdx
  402423:	4c 89 ee             	mov    %r13,%rsi
  402426:	89 df                	mov    %ebx,%edi
  402428:	e8 eb fc ff ff       	callq  402118 <rio_writen>
  40242d:	48 85 c0             	test   %rax,%rax
  402430:	0f 88 31 03 00 00    	js     402767 <submitr+0x4e7>
  402436:	89 de                	mov    %ebx,%esi
  402438:	48 8d bc 24 20 80 00 	lea    0x8020(%rsp),%rdi
  40243f:	00 
  402440:	e8 bd fb ff ff       	callq  402002 <rio_readinitb>
  402445:	ba 00 20 00 00       	mov    $0x2000,%edx
  40244a:	48 8d b4 24 20 60 00 	lea    0x6020(%rsp),%rsi
  402451:	00 
  402452:	48 8d bc 24 20 80 00 	lea    0x8020(%rsp),%rdi
  402459:	00 
  40245a:	e8 a2 fd ff ff       	callq  402201 <rio_readlineb>
  40245f:	48 85 c0             	test   %rax,%rax
  402462:	0f 8e 6e 03 00 00    	jle    4027d6 <submitr+0x556>
  402468:	4c 8d 44 24 10       	lea    0x10(%rsp),%r8
  40246d:	48 8d 8c 24 1c 20 00 	lea    0x201c(%rsp),%rcx
  402474:	00 
  402475:	48 8d 94 24 20 20 00 	lea    0x2020(%rsp),%rdx
  40247c:	00 
  40247d:	be af 34 40 00       	mov    $0x4034af,%esi
  402482:	48 8d bc 24 20 60 00 	lea    0x6020(%rsp),%rdi
  402489:	00 
  40248a:	b8 00 00 00 00       	mov    $0x0,%eax
  40248f:	e8 cc e9 ff ff       	callq  400e60 <__isoc99_sscanf@plt>
  402494:	48 8d b4 24 20 60 00 	lea    0x6020(%rsp),%rsi
  40249b:	00 
  40249c:	bf c6 34 40 00       	mov    $0x4034c6,%edi
  4024a1:	b9 03 00 00 00       	mov    $0x3,%ecx
  4024a6:	f3 a6                	repz cmpsb %es:(%rdi),%ds:(%rsi)
  4024a8:	0f 97 c0             	seta   %al
  4024ab:	1c 00                	sbb    $0x0,%al
  4024ad:	84 c0                	test   %al,%al
  4024af:	0f 84 9f 03 00 00    	je     402854 <submitr+0x5d4>
  4024b5:	ba 00 20 00 00       	mov    $0x2000,%edx
  4024ba:	48 8d b4 24 20 60 00 	lea    0x6020(%rsp),%rsi
  4024c1:	00 
  4024c2:	48 8d bc 24 20 80 00 	lea    0x8020(%rsp),%rdi
  4024c9:	00 
  4024ca:	e8 32 fd ff ff       	callq  402201 <rio_readlineb>
  4024cf:	48 85 c0             	test   %rax,%rax
  4024d2:	7f c0                	jg     402494 <submitr+0x214>
  4024d4:	48 b8 45 72 72 6f 72 	movabs $0x43203a726f727245,%rax
  4024db:	3a 20 43 
  4024de:	48 ba 6c 69 65 6e 74 	movabs $0x6e7520746e65696c,%rdx
  4024e5:	20 75 6e 
  4024e8:	48 89 45 00          	mov    %rax,0x0(%rbp)
  4024ec:	48 89 55 08          	mov    %rdx,0x8(%rbp)
  4024f0:	48 b8 61 62 6c 65 20 	movabs $0x206f7420656c6261,%rax
  4024f7:	74 6f 20 
  4024fa:	48 ba 72 65 61 64 20 	movabs $0x6165682064616572,%rdx
  402501:	68 65 61 
  402504:	48 89 45 10          	mov    %rax,0x10(%rbp)
  402508:	48 89 55 18          	mov    %rdx,0x18(%rbp)
  40250c:	48 b8 64 65 72 73 20 	movabs $0x6f72662073726564,%rax
  402513:	66 72 6f 
  402516:	48 ba 6d 20 74 68 65 	movabs $0x657220656874206d,%rdx
  40251d:	20 72 65 
  402520:	48 89 45 20          	mov    %rax,0x20(%rbp)
  402524:	48 89 55 28          	mov    %rdx,0x28(%rbp)
  402528:	48 b8 73 75 6c 74 20 	movabs $0x72657320746c7573,%rax
  40252f:	73 65 72 
  402532:	48 89 45 30          	mov    %rax,0x30(%rbp)
  402536:	c7 45 38 76 65 72 00 	movl   $0x726576,0x38(%rbp)
  40253d:	89 df                	mov    %ebx,%edi
  40253f:	e8 7c e8 ff ff       	callq  400dc0 <close@plt>
  402544:	b8 ff ff ff ff       	mov    $0xffffffff,%eax
  402549:	48 81 c4 48 a0 00 00 	add    $0xa048,%rsp
  402550:	5b                   	pop    %rbx
  402551:	5d                   	pop    %rbp
  402552:	41 5c                	pop    %r12
  402554:	41 5d                	pop    %r13
  402556:	41 5e                	pop    %r14
  402558:	41 5f                	pop    %r15
  40255a:	c3                   	retq   
  40255b:	48 b8 45 72 72 6f 72 	movabs $0x43203a726f727245,%rax
  402562:	3a 20 43 
  402565:	48 ba 6c 69 65 6e 74 	movabs $0x6e7520746e65696c,%rdx
  40256c:	20 75 6e 
  40256f:	48 89 45 00          	mov    %rax,0x0(%rbp)
  402573:	48 89 55 08          	mov    %rdx,0x8(%rbp)
  402577:	48 b8 61 62 6c 65 20 	movabs $0x206f7420656c6261,%rax
  40257e:	74 6f 20 
  402581:	48 ba 63 72 65 61 74 	movabs $0x7320657461657263,%rdx
  402588:	65 20 73 
  40258b:	48 89 45 10          	mov    %rax,0x10(%rbp)
  40258f:	48 89 55 18          	mov    %rdx,0x18(%rbp)
  402593:	c7 45 20 6f 63 6b 65 	movl   $0x656b636f,0x20(%rbp)
  40259a:	66 c7 45 24 74 00    	movw   $0x74,0x24(%rbp)
  4025a0:	b8 ff ff ff ff       	mov    $0xffffffff,%eax
  4025a5:	eb a2                	jmp    402549 <submitr+0x2c9>
  4025a7:	48 b8 45 72 72 6f 72 	movabs $0x44203a726f727245,%rax
  4025ae:	3a 20 44 
  4025b1:	48 ba 4e 53 20 69 73 	movabs $0x6e7520736920534e,%rdx
  4025b8:	20 75 6e 
  4025bb:	48 89 45 00          	mov    %rax,0x0(%rbp)
  4025bf:	48 89 55 08          	mov    %rdx,0x8(%rbp)
  4025c3:	48 b8 61 62 6c 65 20 	movabs $0x206f7420656c6261,%rax
  4025ca:	74 6f 20 
  4025cd:	48 ba 72 65 73 6f 6c 	movabs $0x2065766c6f736572,%rdx
  4025d4:	76 65 20 
  4025d7:	48 89 45 10          	mov    %rax,0x10(%rbp)
  4025db:	48 89 55 18          	mov    %rdx,0x18(%rbp)
  4025df:	48 b8 73 65 72 76 65 	movabs $0x6120726576726573,%rax
  4025e6:	72 20 61 
  4025e9:	48 89 45 20          	mov    %rax,0x20(%rbp)
  4025ed:	c7 45 28 64 64 72 65 	movl   $0x65726464,0x28(%rbp)
  4025f4:	66 c7 45 2c 73 73    	movw   $0x7373,0x2c(%rbp)
  4025fa:	c6 45 2e 00          	movb   $0x0,0x2e(%rbp)
  4025fe:	89 df                	mov    %ebx,%edi
  402600:	e8 bb e7 ff ff       	callq  400dc0 <close@plt>
  402605:	b8 ff ff ff ff       	mov    $0xffffffff,%eax
  40260a:	e9 3a ff ff ff       	jmpq   402549 <submitr+0x2c9>
  40260f:	48 b8 45 72 72 6f 72 	movabs $0x55203a726f727245,%rax
  402616:	3a 20 55 
  402619:	48 ba 6e 61 62 6c 65 	movabs $0x6f7420656c62616e,%rdx
  402620:	20 74 6f 
  402623:	48 89 45 00          	mov    %rax,0x0(%rbp)
  402627:	48 89 55 08          	mov    %rdx,0x8(%rbp)
  40262b:	48 b8 20 63 6f 6e 6e 	movabs $0x7463656e6e6f6320,%rax
  402632:	65 63 74 
  402635:	48 ba 20 74 6f 20 74 	movabs $0x20656874206f7420,%rdx
  40263c:	68 65 20 
  40263f:	48 89 45 10          	mov    %rax,0x10(%rbp)
  402643:	48 89 55 18          	mov    %rdx,0x18(%rbp)
  402647:	c7 45 20 73 65 72 76 	movl   $0x76726573,0x20(%rbp)
  40264e:	66 c7 45 24 65 72    	movw   $0x7265,0x24(%rbp)
  402654:	c6 45 26 00          	movb   $0x0,0x26(%rbp)
  402658:	89 df                	mov    %ebx,%edi
  40265a:	e8 61 e7 ff ff       	callq  400dc0 <close@plt>
  40265f:	b8 ff ff ff ff       	mov    $0xffffffff,%eax
  402664:	e9 e0 fe ff ff       	jmpq   402549 <submitr+0x2c9>
  402669:	48 b8 45 72 72 6f 72 	movabs $0x52203a726f727245,%rax
  402670:	3a 20 52 
  402673:	48 ba 65 73 75 6c 74 	movabs $0x747320746c757365,%rdx
  40267a:	20 73 74 
  40267d:	48 89 45 00          	mov    %rax,0x0(%rbp)
  402681:	48 89 55 08          	mov    %rdx,0x8(%rbp)
  402685:	48 b8 72 69 6e 67 20 	movabs $0x6f6f7420676e6972,%rax
  40268c:	74 6f 6f 
  40268f:	48 ba 20 6c 61 72 67 	movabs $0x202e656772616c20,%rdx
  402696:	65 2e 20 
  402699:	48 89 45 10          	mov    %rax,0x10(%rbp)
  40269d:	48 89 55 18          	mov    %rdx,0x18(%rbp)
  4026a1:	48 b8 49 6e 63 72 65 	movabs $0x6573616572636e49,%rax
  4026a8:	61 73 65 
  4026ab:	48 ba 20 53 55 42 4d 	movabs $0x5254494d42555320,%rdx
  4026b2:	49 54 52 
  4026b5:	48 89 45 20          	mov    %rax,0x20(%rbp)
  4026b9:	48 89 55 28          	mov    %rdx,0x28(%rbp)
  4026bd:	48 b8 5f 4d 41 58 42 	movabs $0x46554258414d5f,%rax
  4026c4:	55 46 00 
  4026c7:	48 89 45 30          	mov    %rax,0x30(%rbp)
  4026cb:	89 df                	mov    %ebx,%edi
  4026cd:	e8 ee e6 ff ff       	callq  400dc0 <close@plt>
  4026d2:	b8 ff ff ff ff       	mov    $0xffffffff,%eax
  4026d7:	e9 6d fe ff ff       	jmpq   402549 <submitr+0x2c9>
  4026dc:	48 b8 45 72 72 6f 72 	movabs $0x52203a726f727245,%rax
  4026e3:	3a 20 52 
  4026e6:	48 ba 65 73 75 6c 74 	movabs $0x747320746c757365,%rdx
  4026ed:	20 73 74 
  4026f0:	48 89 45 00          	mov    %rax,0x0(%rbp)
  4026f4:	48 89 55 08          	mov    %rdx,0x8(%rbp)
  4026f8:	48 b8 72 69 6e 67 20 	movabs $0x6e6f6320676e6972,%rax
  4026ff:	63 6f 6e 
  402702:	48 ba 74 61 69 6e 73 	movabs $0x6e6120736e696174,%rdx
  402709:	20 61 6e 
  40270c:	48 89 45 10          	mov    %rax,0x10(%rbp)
  402710:	48 89 55 18          	mov    %rdx,0x18(%rbp)
  402714:	48 b8 20 69 6c 6c 65 	movabs $0x6c6167656c6c6920,%rax
  40271b:	67 61 6c 
  40271e:	48 ba 20 6f 72 20 75 	movabs $0x72706e7520726f20,%rdx
  402725:	6e 70 72 
  402728:	48 89 45 20          	mov    %rax,0x20(%rbp)
  40272c:	48 89 55 28          	mov    %rdx,0x28(%rbp)
  402730:	48 b8 69 6e 74 61 62 	movabs $0x20656c6261746e69,%rax
  402737:	6c 65 20 
  40273a:	48 ba 63 68 61 72 61 	movabs $0x6574636172616863,%rdx
  402741:	63 74 65 
  402744:	48 89 45 30          	mov    %rax,0x30(%rbp)
  402748:	48 89 55 38          	mov    %rdx,0x38(%rbp)
  40274c:	66 c7 45 40 72 2e    	movw   $0x2e72,0x40(%rbp)
  402752:	c6 45 42 00          	movb   $0x0,0x42(%rbp)
  402756:	89 df                	mov    %ebx,%edi
  402758:	e8 63 e6 ff ff       	callq  400dc0 <close@plt>
  40275d:	b8 ff ff ff ff       	mov    $0xffffffff,%eax
  402762:	e9 e2 fd ff ff       	jmpq   402549 <submitr+0x2c9>
  402767:	48 b8 45 72 72 6f 72 	movabs $0x43203a726f727245,%rax
  40276e:	3a 20 43 
  402771:	48 ba 6c 69 65 6e 74 	movabs $0x6e7520746e65696c,%rdx
  402778:	20 75 6e 
  40277b:	48 89 45 00          	mov    %rax,0x0(%rbp)
  40277f:	48 89 55 08          	mov    %rdx,0x8(%rbp)
  402783:	48 b8 61 62 6c 65 20 	movabs $0x206f7420656c6261,%rax
  40278a:	74 6f 20 
  40278d:	48 ba 77 72 69 74 65 	movabs $0x6f74206574697277,%rdx
  402794:	20 74 6f 
  402797:	48 89 45 10          	mov    %rax,0x10(%rbp)
  40279b:	48 89 55 18          	mov    %rdx,0x18(%rbp)
  40279f:	48 b8 20 74 68 65 20 	movabs $0x7365722065687420,%rax
  4027a6:	72 65 73 
  4027a9:	48 ba 75 6c 74 20 73 	movabs $0x7672657320746c75,%rdx
  4027b0:	65 72 76 
  4027b3:	48 89 45 20          	mov    %rax,0x20(%rbp)
  4027b7:	48 89 55 28          	mov    %rdx,0x28(%rbp)
  4027bb:	66 c7 45 30 65 72    	movw   $0x7265,0x30(%rbp)
  4027c1:	c6 45 32 00          	movb   $0x0,0x32(%rbp)
  4027c5:	89 df                	mov    %ebx,%edi
  4027c7:	e8 f4 e5 ff ff       	callq  400dc0 <close@plt>
  4027cc:	b8 ff ff ff ff       	mov    $0xffffffff,%eax
  4027d1:	e9 73 fd ff ff       	jmpq   402549 <submitr+0x2c9>
  4027d6:	48 b8 45 72 72 6f 72 	movabs $0x43203a726f727245,%rax
  4027dd:	3a 20 43 
  4027e0:	48 ba 6c 69 65 6e 74 	movabs $0x6e7520746e65696c,%rdx
  4027e7:	20 75 6e 
  4027ea:	48 89 45 00          	mov    %rax,0x0(%rbp)
  4027ee:	48 89 55 08          	mov    %rdx,0x8(%rbp)
  4027f2:	48 b8 61 62 6c 65 20 	movabs $0x206f7420656c6261,%rax
  4027f9:	74 6f 20 
  4027fc:	48 ba 72 65 61 64 20 	movabs $0x7269662064616572,%rdx
  402803:	66 69 72 
  402806:	48 89 45 10          	mov    %rax,0x10(%rbp)
  40280a:	48 89 55 18          	mov    %rdx,0x18(%rbp)
  40280e:	48 b8 73 74 20 68 65 	movabs $0x6564616568207473,%rax
  402815:	61 64 65 
  402818:	48 ba 72 20 66 72 6f 	movabs $0x72206d6f72662072,%rdx
  40281f:	6d 20 72 
  402822:	48 89 45 20          	mov    %rax,0x20(%rbp)
  402826:	48 89 55 28          	mov    %rdx,0x28(%rbp)
  40282a:	48 b8 65 73 75 6c 74 	movabs $0x657320746c757365,%rax
  402831:	20 73 65 
  402834:	48 89 45 30          	mov    %rax,0x30(%rbp)
  402838:	c7 45 38 72 76 65 72 	movl   $0x72657672,0x38(%rbp)
  40283f:	c6 45 3c 00          	movb   $0x0,0x3c(%rbp)
  402843:	89 df                	mov    %ebx,%edi
  402845:	e8 76 e5 ff ff       	callq  400dc0 <close@plt>
  40284a:	b8 ff ff ff ff       	mov    $0xffffffff,%eax
  40284f:	e9 f5 fc ff ff       	jmpq   402549 <submitr+0x2c9>
  402854:	ba 00 20 00 00       	mov    $0x2000,%edx
  402859:	48 8d b4 24 20 60 00 	lea    0x6020(%rsp),%rsi
  402860:	00 
  402861:	48 8d bc 24 20 80 00 	lea    0x8020(%rsp),%rdi
  402868:	00 
  402869:	e8 93 f9 ff ff       	callq  402201 <rio_readlineb>
  40286e:	48 85 c0             	test   %rax,%rax
  402871:	0f 8e 91 00 00 00    	jle    402908 <submitr+0x688>
  402877:	8b 94 24 1c 20 00 00 	mov    0x201c(%rsp),%edx
  40287e:	81 fa c8 00 00 00    	cmp    $0xc8,%edx
  402884:	0f 85 02 01 00 00    	jne    40298c <submitr+0x70c>
  40288a:	48 8d b4 24 20 60 00 	lea    0x6020(%rsp),%rsi
  402891:	00 
  402892:	48 89 ef             	mov    %rbp,%rdi
  402895:	e8 b6 e4 ff ff       	callq  400d50 <strcpy@plt>
  40289a:	89 df                	mov    %ebx,%edi
  40289c:	e8 1f e5 ff ff       	callq  400dc0 <close@plt>
  4028a1:	bf c0 34 40 00       	mov    $0x4034c0,%edi
  4028a6:	b9 04 00 00 00       	mov    $0x4,%ecx
  4028ab:	48 89 ee             	mov    %rbp,%rsi
  4028ae:	f3 a6                	repz cmpsb %es:(%rdi),%ds:(%rsi)
  4028b0:	0f 97 c0             	seta   %al
  4028b3:	1c 00                	sbb    $0x0,%al
  4028b5:	0f be c0             	movsbl %al,%eax
  4028b8:	85 c0                	test   %eax,%eax
  4028ba:	0f 84 89 fc ff ff    	je     402549 <submitr+0x2c9>
  4028c0:	bf c4 34 40 00       	mov    $0x4034c4,%edi
  4028c5:	b9 05 00 00 00       	mov    $0x5,%ecx
  4028ca:	48 89 ee             	mov    %rbp,%rsi
  4028cd:	f3 a6                	repz cmpsb %es:(%rdi),%ds:(%rsi)
  4028cf:	0f 97 c0             	seta   %al
  4028d2:	1c 00                	sbb    $0x0,%al
  4028d4:	0f be c0             	movsbl %al,%eax
  4028d7:	85 c0                	test   %eax,%eax
  4028d9:	0f 84 6a fc ff ff    	je     402549 <submitr+0x2c9>
  4028df:	bf c9 34 40 00       	mov    $0x4034c9,%edi
  4028e4:	b9 03 00 00 00       	mov    $0x3,%ecx
  4028e9:	48 89 ee             	mov    %rbp,%rsi
  4028ec:	f3 a6                	repz cmpsb %es:(%rdi),%ds:(%rsi)
  4028ee:	0f 97 c0             	seta   %al
  4028f1:	1c 00                	sbb    $0x0,%al
  4028f3:	0f be c0             	movsbl %al,%eax
  4028f6:	85 c0                	test   %eax,%eax
  4028f8:	0f 84 4b fc ff ff    	je     402549 <submitr+0x2c9>
  4028fe:	b8 ff ff ff ff       	mov    $0xffffffff,%eax
  402903:	e9 41 fc ff ff       	jmpq   402549 <submitr+0x2c9>
  402908:	48 b8 45 72 72 6f 72 	movabs $0x43203a726f727245,%rax
  40290f:	3a 20 43 
  402912:	48 ba 6c 69 65 6e 74 	movabs $0x6e7520746e65696c,%rdx
  402919:	20 75 6e 
  40291c:	48 89 45 00          	mov    %rax,0x0(%rbp)
  402920:	48 89 55 08          	mov    %rdx,0x8(%rbp)
  402924:	48 b8 61 62 6c 65 20 	movabs $0x206f7420656c6261,%rax
  40292b:	74 6f 20 
  40292e:	48 ba 72 65 61 64 20 	movabs $0x6174732064616572,%rdx
  402935:	73 74 61 
  402938:	48 89 45 10          	mov    %rax,0x10(%rbp)
  40293c:	48 89 55 18          	mov    %rdx,0x18(%rbp)
  402940:	48 b8 74 75 73 20 6d 	movabs $0x7373656d20737574,%rax
  402947:	65 73 73 
  40294a:	48 ba 61 67 65 20 66 	movabs $0x6d6f726620656761,%rdx
  402951:	72 6f 6d 
  402954:	48 89 45 20          	mov    %rax,0x20(%rbp)
  402958:	48 89 55 28          	mov    %rdx,0x28(%rbp)
  40295c:	48 b8 20 72 65 73 75 	movabs $0x20746c7573657220,%rax
  402963:	6c 74 20 
  402966:	48 89 45 30          	mov    %rax,0x30(%rbp)
  40296a:	c7 45 38 73 65 72 76 	movl   $0x76726573,0x38(%rbp)
  402971:	66 c7 45 3c 65 72    	movw   $0x7265,0x3c(%rbp)
  402977:	c6 45 3e 00          	movb   $0x0,0x3e(%rbp)
  40297b:	89 df                	mov    %ebx,%edi
  40297d:	e8 3e e4 ff ff       	callq  400dc0 <close@plt>
  402982:	b8 ff ff ff ff       	mov    $0xffffffff,%eax
  402987:	e9 bd fb ff ff       	jmpq   402549 <submitr+0x2c9>
  40298c:	48 8d 4c 24 10       	lea    0x10(%rsp),%rcx
  402991:	be 78 34 40 00       	mov    $0x403478,%esi
  402996:	48 89 ef             	mov    %rbp,%rdi
  402999:	b8 00 00 00 00       	mov    $0x0,%eax
  40299e:	e8 2d e5 ff ff       	callq  400ed0 <sprintf@plt>
  4029a3:	89 df                	mov    %ebx,%edi
  4029a5:	e8 16 e4 ff ff       	callq  400dc0 <close@plt>
  4029aa:	b8 ff ff ff ff       	mov    $0xffffffff,%eax
  4029af:	e9 95 fb ff ff       	jmpq   402549 <submitr+0x2c9>

00000000004029b4 <init_timeout>:
  4029b4:	85 ff                	test   %edi,%edi
  4029b6:	74 26                	je     4029de <init_timeout+0x2a>
  4029b8:	53                   	push   %rbx
  4029b9:	89 fb                	mov    %edi,%ebx
  4029bb:	85 ff                	test   %edi,%edi
  4029bd:	78 18                	js     4029d7 <init_timeout+0x23>
  4029bf:	be 14 20 40 00       	mov    $0x402014,%esi
  4029c4:	bf 0e 00 00 00       	mov    $0xe,%edi
  4029c9:	e8 12 e4 ff ff       	callq  400de0 <signal@plt>
  4029ce:	89 df                	mov    %ebx,%edi
  4029d0:	e8 db e3 ff ff       	callq  400db0 <alarm@plt>
  4029d5:	5b                   	pop    %rbx
  4029d6:	c3                   	retq   
  4029d7:	bb 00 00 00 00       	mov    $0x0,%ebx
  4029dc:	eb e1                	jmp    4029bf <init_timeout+0xb>
  4029de:	f3 c3                	repz retq 

00000000004029e0 <init_driver>:
  4029e0:	55                   	push   %rbp
  4029e1:	53                   	push   %rbx
  4029e2:	48 83 ec 18          	sub    $0x18,%rsp
  4029e6:	48 89 fd             	mov    %rdi,%rbp
  4029e9:	be 01 00 00 00       	mov    $0x1,%esi
  4029ee:	bf 0d 00 00 00       	mov    $0xd,%edi
  4029f3:	e8 e8 e3 ff ff       	callq  400de0 <signal@plt>
  4029f8:	be 01 00 00 00       	mov    $0x1,%esi
  4029fd:	bf 1d 00 00 00       	mov    $0x1d,%edi
  402a02:	e8 d9 e3 ff ff       	callq  400de0 <signal@plt>
  402a07:	be 01 00 00 00       	mov    $0x1,%esi
  402a0c:	bf 1d 00 00 00       	mov    $0x1d,%edi
  402a11:	e8 ca e3 ff ff       	callq  400de0 <signal@plt>
  402a16:	ba 00 00 00 00       	mov    $0x0,%edx
  402a1b:	be 01 00 00 00       	mov    $0x1,%esi
  402a20:	bf 02 00 00 00       	mov    $0x2,%edi
  402a25:	e8 d6 e4 ff ff       	callq  400f00 <socket@plt>
  402a2a:	85 c0                	test   %eax,%eax
  402a2c:	78 7c                	js     402aaa <init_driver+0xca>
  402a2e:	89 c3                	mov    %eax,%ebx
  402a30:	bf cc 34 40 00       	mov    $0x4034cc,%edi
  402a35:	e8 b6 e3 ff ff       	callq  400df0 <gethostbyname@plt>
  402a3a:	48 85 c0             	test   %rax,%rax
  402a3d:	0f 84 b3 00 00 00    	je     402af6 <init_driver+0x116>
  402a43:	48 c7 04 24 00 00 00 	movq   $0x0,(%rsp)
  402a4a:	00 
  402a4b:	48 c7 44 24 08 00 00 	movq   $0x0,0x8(%rsp)
  402a52:	00 00 
  402a54:	66 c7 04 24 02 00    	movw   $0x2,(%rsp)
  402a5a:	48 8b 48 18          	mov    0x18(%rax),%rcx
  402a5e:	48 63 50 14          	movslq 0x14(%rax),%rdx
  402a62:	48 8d 74 24 04       	lea    0x4(%rsp),%rsi
  402a67:	48 8b 39             	mov    (%rcx),%rdi
  402a6a:	e8 11 e4 ff ff       	callq  400e80 <bcopy@plt>
  402a6f:	66 c7 44 24 02 5e b3 	movw   $0xb35e,0x2(%rsp)
  402a76:	ba 10 00 00 00       	mov    $0x10,%edx
  402a7b:	48 89 e6             	mov    %rsp,%rsi
  402a7e:	89 df                	mov    %ebx,%edi
  402a80:	e8 6b e4 ff ff       	callq  400ef0 <connect@plt>
  402a85:	85 c0                	test   %eax,%eax
  402a87:	0f 88 d1 00 00 00    	js     402b5e <init_driver+0x17e>
  402a8d:	89 df                	mov    %ebx,%edi
  402a8f:	e8 2c e3 ff ff       	callq  400dc0 <close@plt>
  402a94:	66 c7 45 00 4f 4b    	movw   $0x4b4f,0x0(%rbp)
  402a9a:	c6 45 02 00          	movb   $0x0,0x2(%rbp)
  402a9e:	b8 00 00 00 00       	mov    $0x0,%eax
  402aa3:	48 83 c4 18          	add    $0x18,%rsp
  402aa7:	5b                   	pop    %rbx
  402aa8:	5d                   	pop    %rbp
  402aa9:	c3                   	retq   
  402aaa:	48 b8 45 72 72 6f 72 	movabs $0x43203a726f727245,%rax
  402ab1:	3a 20 43 
  402ab4:	48 ba 6c 69 65 6e 74 	movabs $0x6e7520746e65696c,%rdx
  402abb:	20 75 6e 
  402abe:	48 89 45 00          	mov    %rax,0x0(%rbp)
  402ac2:	48 89 55 08          	mov    %rdx,0x8(%rbp)
  402ac6:	48 b8 61 62 6c 65 20 	movabs $0x206f7420656c6261,%rax
  402acd:	74 6f 20 
  402ad0:	48 ba 63 72 65 61 74 	movabs $0x7320657461657263,%rdx
  402ad7:	65 20 73 
  402ada:	48 89 45 10          	mov    %rax,0x10(%rbp)
  402ade:	48 89 55 18          	mov    %rdx,0x18(%rbp)
  402ae2:	c7 45 20 6f 63 6b 65 	movl   $0x656b636f,0x20(%rbp)
  402ae9:	66 c7 45 24 74 00    	movw   $0x74,0x24(%rbp)
  402aef:	b8 ff ff ff ff       	mov    $0xffffffff,%eax
  402af4:	eb ad                	jmp    402aa3 <init_driver+0xc3>
  402af6:	48 b8 45 72 72 6f 72 	movabs $0x44203a726f727245,%rax
  402afd:	3a 20 44 
  402b00:	48 ba 4e 53 20 69 73 	movabs $0x6e7520736920534e,%rdx
  402b07:	20 75 6e 
  402b0a:	48 89 45 00          	mov    %rax,0x0(%rbp)
  402b0e:	48 89 55 08          	mov    %rdx,0x8(%rbp)
  402b12:	48 b8 61 62 6c 65 20 	movabs $0x206f7420656c6261,%rax
  402b19:	74 6f 20 
  402b1c:	48 ba 72 65 73 6f 6c 	movabs $0x2065766c6f736572,%rdx
  402b23:	76 65 20 
  402b26:	48 89 45 10          	mov    %rax,0x10(%rbp)
  402b2a:	48 89 55 18          	mov    %rdx,0x18(%rbp)
  402b2e:	48 b8 73 65 72 76 65 	movabs $0x6120726576726573,%rax
  402b35:	72 20 61 
  402b38:	48 89 45 20          	mov    %rax,0x20(%rbp)
  402b3c:	c7 45 28 64 64 72 65 	movl   $0x65726464,0x28(%rbp)
  402b43:	66 c7 45 2c 73 73    	movw   $0x7373,0x2c(%rbp)
  402b49:	c6 45 2e 00          	movb   $0x0,0x2e(%rbp)
  402b4d:	89 df                	mov    %ebx,%edi
  402b4f:	e8 6c e2 ff ff       	callq  400dc0 <close@plt>
  402b54:	b8 ff ff ff ff       	mov    $0xffffffff,%eax
  402b59:	e9 45 ff ff ff       	jmpq   402aa3 <init_driver+0xc3>
  402b5e:	48 b8 45 72 72 6f 72 	movabs $0x55203a726f727245,%rax
  402b65:	3a 20 55 
  402b68:	48 ba 6e 61 62 6c 65 	movabs $0x6f7420656c62616e,%rdx
  402b6f:	20 74 6f 
  402b72:	48 89 45 00          	mov    %rax,0x0(%rbp)
  402b76:	48 89 55 08          	mov    %rdx,0x8(%rbp)
  402b7a:	48 b8 20 63 6f 6e 6e 	movabs $0x7463656e6e6f6320,%rax
  402b81:	65 63 74 
  402b84:	48 ba 20 74 6f 20 73 	movabs $0x76726573206f7420,%rdx
  402b8b:	65 72 76 
  402b8e:	48 89 45 10          	mov    %rax,0x10(%rbp)
  402b92:	48 89 55 18          	mov    %rdx,0x18(%rbp)
  402b96:	66 c7 45 20 65 72    	movw   $0x7265,0x20(%rbp)
  402b9c:	c6 45 22 00          	movb   $0x0,0x22(%rbp)
  402ba0:	89 df                	mov    %ebx,%edi
  402ba2:	e8 19 e2 ff ff       	callq  400dc0 <close@plt>
  402ba7:	b8 ff ff ff ff       	mov    $0xffffffff,%eax
  402bac:	e9 f2 fe ff ff       	jmpq   402aa3 <init_driver+0xc3>

0000000000402bb1 <driver_post>:
  402bb1:	53                   	push   %rbx
  402bb2:	4c 89 cb             	mov    %r9,%rbx
  402bb5:	45 85 c0             	test   %r8d,%r8d
  402bb8:	75 18                	jne    402bd2 <driver_post+0x21>
  402bba:	48 85 ff             	test   %rdi,%rdi
  402bbd:	74 05                	je     402bc4 <driver_post+0x13>
  402bbf:	80 3f 00             	cmpb   $0x0,(%rdi)
  402bc2:	75 30                	jne    402bf4 <driver_post+0x43>
  402bc4:	66 c7 03 4f 4b       	movw   $0x4b4f,(%rbx)
  402bc9:	c6 43 02 00          	movb   $0x0,0x2(%rbx)
  402bcd:	44 89 c0             	mov    %r8d,%eax
  402bd0:	5b                   	pop    %rbx
  402bd1:	c3                   	retq   
  402bd2:	48 89 ce             	mov    %rcx,%rsi
  402bd5:	bf e9 34 40 00       	mov    $0x4034e9,%edi
  402bda:	b8 00 00 00 00       	mov    $0x0,%eax
  402bdf:	e8 ac e1 ff ff       	callq  400d90 <printf@plt>
  402be4:	66 c7 03 4f 4b       	movw   $0x4b4f,(%rbx)
  402be9:	c6 43 02 00          	movb   $0x0,0x2(%rbx)
  402bed:	b8 00 00 00 00       	mov    $0x0,%eax
  402bf2:	eb dc                	jmp    402bd0 <driver_post+0x1f>
  402bf4:	48 83 ec 08          	sub    $0x8,%rsp
  402bf8:	41 51                	push   %r9
  402bfa:	49 89 c9             	mov    %rcx,%r9
  402bfd:	49 89 d0             	mov    %rdx,%r8
  402c00:	48 89 f9             	mov    %rdi,%rcx
  402c03:	48 89 f2             	mov    %rsi,%rdx
  402c06:	be b3 5e 00 00       	mov    $0x5eb3,%esi
  402c0b:	bf cc 34 40 00       	mov    $0x4034cc,%edi
  402c10:	e8 6b f6 ff ff       	callq  402280 <submitr>
  402c15:	48 83 c4 10          	add    $0x10,%rsp
  402c19:	eb b5                	jmp    402bd0 <driver_post+0x1f>

0000000000402c1b <check>:
  402c1b:	89 f8                	mov    %edi,%eax
  402c1d:	c1 e8 1c             	shr    $0x1c,%eax
  402c20:	85 c0                	test   %eax,%eax
  402c22:	74 1d                	je     402c41 <check+0x26>
  402c24:	b9 00 00 00 00       	mov    $0x0,%ecx
  402c29:	83 f9 1f             	cmp    $0x1f,%ecx
  402c2c:	7f 0d                	jg     402c3b <check+0x20>
  402c2e:	89 f8                	mov    %edi,%eax
  402c30:	d3 e8                	shr    %cl,%eax
  402c32:	3c 0a                	cmp    $0xa,%al
  402c34:	74 11                	je     402c47 <check+0x2c>
  402c36:	83 c1 08             	add    $0x8,%ecx
  402c39:	eb ee                	jmp    402c29 <check+0xe>
  402c3b:	b8 01 00 00 00       	mov    $0x1,%eax
  402c40:	c3                   	retq   
  402c41:	b8 00 00 00 00       	mov    $0x0,%eax
  402c46:	c3                   	retq   
  402c47:	b8 00 00 00 00       	mov    $0x0,%eax
  402c4c:	c3                   	retq   

0000000000402c4d <gencookie>:
  402c4d:	53                   	push   %rbx
  402c4e:	83 c7 01             	add    $0x1,%edi
  402c51:	e8 da e0 ff ff       	callq  400d30 <srandom@plt>
  402c56:	e8 e5 e1 ff ff       	callq  400e40 <random@plt>
  402c5b:	89 c3                	mov    %eax,%ebx
  402c5d:	89 c7                	mov    %eax,%edi
  402c5f:	e8 b7 ff ff ff       	callq  402c1b <check>
  402c64:	85 c0                	test   %eax,%eax
  402c66:	74 ee                	je     402c56 <gencookie+0x9>
  402c68:	89 d8                	mov    %ebx,%eax
  402c6a:	5b                   	pop    %rbx
  402c6b:	c3                   	retq   
  402c6c:	0f 1f 40 00          	nopl   0x0(%rax)

0000000000402c70 <__libc_csu_init>:
  402c70:	41 57                	push   %r15
  402c72:	41 56                	push   %r14
  402c74:	49 89 d7             	mov    %rdx,%r15
  402c77:	41 55                	push   %r13
  402c79:	41 54                	push   %r12
  402c7b:	4c 8d 25 7e 11 20 00 	lea    0x20117e(%rip),%r12        # 603e00 <__frame_dummy_init_array_entry>
  402c82:	55                   	push   %rbp
  402c83:	48 8d 2d 7e 11 20 00 	lea    0x20117e(%rip),%rbp        # 603e08 <__init_array_end>
  402c8a:	53                   	push   %rbx
  402c8b:	41 89 fd             	mov    %edi,%r13d
  402c8e:	49 89 f6             	mov    %rsi,%r14
  402c91:	4c 29 e5             	sub    %r12,%rbp
  402c94:	48 83 ec 08          	sub    $0x8,%rsp
  402c98:	48 c1 fd 03          	sar    $0x3,%rbp
  402c9c:	e8 47 e0 ff ff       	callq  400ce8 <_init>
  402ca1:	48 85 ed             	test   %rbp,%rbp
  402ca4:	74 20                	je     402cc6 <__libc_csu_init+0x56>
  402ca6:	31 db                	xor    %ebx,%ebx
  402ca8:	0f 1f 84 00 00 00 00 	nopl   0x0(%rax,%rax,1)
  402caf:	00 
  402cb0:	4c 89 fa             	mov    %r15,%rdx
  402cb3:	4c 89 f6             	mov    %r14,%rsi
  402cb6:	44 89 ef             	mov    %r13d,%edi
  402cb9:	41 ff 14 dc          	callq  *(%r12,%rbx,8)
  402cbd:	48 83 c3 01          	add    $0x1,%rbx
  402cc1:	48 39 dd             	cmp    %rbx,%rbp
  402cc4:	75 ea                	jne    402cb0 <__libc_csu_init+0x40>
  402cc6:	48 83 c4 08          	add    $0x8,%rsp
  402cca:	5b                   	pop    %rbx
  402ccb:	5d                   	pop    %rbp
  402ccc:	41 5c                	pop    %r12
  402cce:	41 5d                	pop    %r13
  402cd0:	41 5e                	pop    %r14
  402cd2:	41 5f                	pop    %r15
  402cd4:	c3                   	retq   
  402cd5:	66 66 2e 0f 1f 84 00 	data16 nopw %cs:0x0(%rax,%rax,1)
  402cdc:	00 00 00 00 

0000000000402ce0 <__libc_csu_fini>:
  402ce0:	f3 c3                	repz retq 

Disassembly of section .fini:

0000000000402ce4 <_fini>:
  402ce4:	48 83 ec 08          	sub    $0x8,%rsp
  402ce8:	48 83 c4 08          	add    $0x8,%rsp
  402cec:	c3                   	retq   
